ARM GAS  C:\Users\perhi\AppData\Local\Temp\ccP3Gtoi.s 			page 1


   1              		.syntax unified
   2              		.cpu cortex-m3
   3              		.fpu softvfp
   4              		.eabi_attribute 20, 1
   5              		.eabi_attribute 21, 1
   6              		.eabi_attribute 23, 3
   7              		.eabi_attribute 24, 1
   8              		.eabi_attribute 25, 1
   9              		.eabi_attribute 26, 1
  10              		.eabi_attribute 30, 1
  11              		.eabi_attribute 34, 1
  12              		.eabi_attribute 18, 4
  13              		.thumb
  14              		.syntax unified
  15              		.file	"BatteryDriver.c"
  16              		.text
  17              	.Ltext0:
  18              		.cfi_sections	.debug_frame
  19              		.global	__aeabi_i2d
  20              		.global	__aeabi_dsub
  21              		.global	__aeabi_ddiv
  22              		.global	__aeabi_d2f
  23              		.global	__aeabi_fadd
  24              		.global	__aeabi_fdiv
  25              		.section	.text.currentHall,"ax",%progbits
  26              		.align	2
  27              		.global	currentHall
  28              		.thumb
  29              		.thumb_func
  30              		.type	currentHall, %function
  31              	currentHall:
  32              	.LFB64:
  33              		.file 1 "BatteryDriver.c"
   1:BatteryDriver.c **** #include "BatteryDriver.h"
   2:BatteryDriver.c **** 
   3:BatteryDriver.c **** float currentHall() {
  34              		.loc 1 3 0
  35              		.cfi_startproc
  36              		@ args = 0, pretend = 0, frame = 0
  37              		@ frame_needed = 0, uses_anonymous_args = 0
  38 0000 38B5     		push	{r3, r4, r5, lr}
  39              		.cfi_def_cfa_offset 16
  40              		.cfi_offset 3, -16
  41              		.cfi_offset 4, -12
  42              		.cfi_offset 5, -8
  43              		.cfi_offset 14, -4
  44              	.LVL0:
  45              	.LBB2:
   4:BatteryDriver.c ****     float sum = 0;
   5:BatteryDriver.c ****     
   6:BatteryDriver.c ****     for (int i = 0; i < 1000; i++) {
  46              		.loc 1 6 0
  47 0002 0024     		movs	r4, #0
  48              	.LBE2:
   4:BatteryDriver.c ****     float sum = 0;
  49              		.loc 1 4 0
  50 0004 0025     		movs	r5, #0
ARM GAS  C:\Users\perhi\AppData\Local\Temp\ccP3Gtoi.s 			page 2


  51              	.LBB4:
  52              		.loc 1 6 0
  53 0006 17E0     		b	.L2
  54              	.LVL1:
  55              	.L3:
  56              	.LBB3:
   7:BatteryDriver.c ****         // This iteration summarizes 1000 measurements, with the purpose of returning a mean value.
   8:BatteryDriver.c ****         int16_t result1 = ADC_SAR_1_CountsTo_mVolts(ADC_SAR_1_GetResult16());
  57              		.loc 1 8 0 discriminator 3
  58 0008 FFF7FEFF 		bl	ADC_SAR_1_GetResult16
  59              	.LVL2:
  60 000c FFF7FEFF 		bl	ADC_SAR_1_CountsTo_mVolts
  61              	.LVL3:
   9:BatteryDriver.c ****         float convToAmps = (result1-2.495)/0.3339;
  62              		.loc 1 9 0 discriminator 3
  63 0010 FFF7FEFF 		bl	__aeabi_i2d
  64              	.LVL4:
  65 0014 0CA3     		adr	r3, .L5
  66 0016 D3E90023 		ldrd	r2, [r3]
  67 001a FFF7FEFF 		bl	__aeabi_dsub
  68              	.LVL5:
  69 001e 0CA3     		adr	r3, .L5+8
  70 0020 D3E90023 		ldrd	r2, [r3]
  71 0024 FFF7FEFF 		bl	__aeabi_ddiv
  72              	.LVL6:
  73 0028 FFF7FEFF 		bl	__aeabi_d2f
  74              	.LVL7:
  10:BatteryDriver.c ****         
  11:BatteryDriver.c ****         sum += convToAmps;
  75              		.loc 1 11 0 discriminator 3
  76 002c 0146     		mov	r1, r0
  77 002e 2846     		mov	r0, r5
  78              	.LVL8:
  79 0030 FFF7FEFF 		bl	__aeabi_fadd
  80              	.LVL9:
  81 0034 0546     		mov	r5, r0
  82              	.LVL10:
  83              	.LBE3:
   6:BatteryDriver.c ****         // This iteration summarizes 1000 measurements, with the purpose of returning a mean value.
  84              		.loc 1 6 0 discriminator 3
  85 0036 0134     		adds	r4, r4, #1
  86              	.LVL11:
  87              	.L2:
   6:BatteryDriver.c ****         // This iteration summarizes 1000 measurements, with the purpose of returning a mean value.
  88              		.loc 1 6 0 is_stmt 0 discriminator 1
  89 0038 B4F57A7F 		cmp	r4, #1000
  90 003c E4DB     		blt	.L3
  91              	.LBE4:
  12:BatteryDriver.c ****     }
  13:BatteryDriver.c ****     // Returns the summarization divided with the amount of samples
  14:BatteryDriver.c ****     return sum / 1000;
  92              		.loc 1 14 0 is_stmt 1
  93 003e 0649     		ldr	r1, .L5+16
  94 0040 2846     		mov	r0, r5
  95 0042 FFF7FEFF 		bl	__aeabi_fdiv
  96              	.LVL12:
  15:BatteryDriver.c **** }
ARM GAS  C:\Users\perhi\AppData\Local\Temp\ccP3Gtoi.s 			page 3


  97              		.loc 1 15 0
  98 0046 38BD     		pop	{r3, r4, r5, pc}
  99              	.LVL13:
 100              	.L6:
 101              		.align	3
 102              	.L5:
 103 0048 F6285C8F 		.word	-1889785610
 104 004c C2F50340 		.word	1074001346
 105 0050 029A081B 		.word	453548546
 106 0054 9E5ED53F 		.word	1070947998
 107 0058 00007A44 		.word	1148846080
 108              		.cfi_endproc
 109              	.LFE64:
 110              		.size	currentHall, .-currentHall
 111              		.global	__aeabi_fmul
 112              		.global	__aeabi_f2iz
 113              		.section	.text.scaledCurrentHall,"ax",%progbits
 114              		.align	2
 115              		.global	scaledCurrentHall
 116              		.thumb
 117              		.thumb_func
 118              		.type	scaledCurrentHall, %function
 119              	scaledCurrentHall:
 120              	.LFB65:
  16:BatteryDriver.c **** 
  17:BatteryDriver.c **** uint16_t scaledCurrentHall() {
 121              		.loc 1 17 0
 122              		.cfi_startproc
 123              		@ args = 0, pretend = 0, frame = 0
 124              		@ frame_needed = 0, uses_anonymous_args = 0
 125 0000 08B5     		push	{r3, lr}
 126              		.cfi_def_cfa_offset 8
 127              		.cfi_offset 3, -8
 128              		.cfi_offset 14, -4
  18:BatteryDriver.c ****     float current = currentHall();
 129              		.loc 1 18 0
 130 0002 FFF7FEFF 		bl	currentHall
 131              	.LVL14:
  19:BatteryDriver.c ****     // Scale the current to preserve more decimals. Assuming max expected current is 25.5 amps,
  20:BatteryDriver.c ****     // we multiply by 100 to preserve two decimal places.
  21:BatteryDriver.c ****     int scaledCurrent = (int)(current * 100);
 132              		.loc 1 21 0
 133 0006 0849     		ldr	r1, .L12
 134 0008 FFF7FEFF 		bl	__aeabi_fmul
 135              	.LVL15:
 136 000c FFF7FEFF 		bl	__aeabi_f2iz
 137              	.LVL16:
  22:BatteryDriver.c ****     if (scaledCurrent > 65535) {
 138              		.loc 1 22 0
 139 0010 B0F5803F 		cmp	r0, #65536
 140 0014 02DA     		bge	.L9
  23:BatteryDriver.c ****         scaledCurrent = 65535;
  24:BatteryDriver.c ****     } else if (scaledCurrent < 0) {
 141              		.loc 1 24 0
 142 0016 0028     		cmp	r0, #0
 143 0018 04DA     		bge	.L8
 144 001a 02E0     		b	.L10
ARM GAS  C:\Users\perhi\AppData\Local\Temp\ccP3Gtoi.s 			page 4


 145              	.L9:
  23:BatteryDriver.c ****         scaledCurrent = 65535;
 146              		.loc 1 23 0
 147 001c 4FF6FF70 		movw	r0, #65535
 148              	.LVL17:
 149 0020 00E0     		b	.L8
 150              	.LVL18:
 151              	.L10:
  25:BatteryDriver.c ****         scaledCurrent = 0;
 152              		.loc 1 25 0
 153 0022 0020     		movs	r0, #0
 154              	.LVL19:
 155              	.L8:
  26:BatteryDriver.c ****     }
  27:BatteryDriver.c ****     return (uint16_t)scaledCurrent;
  28:BatteryDriver.c **** }
 156              		.loc 1 28 0
 157 0024 80B2     		uxth	r0, r0
 158              	.LVL20:
 159 0026 08BD     		pop	{r3, pc}
 160              	.L13:
 161              		.align	2
 162              	.L12:
 163 0028 0000C842 		.word	1120403456
 164              		.cfi_endproc
 165              	.LFE65:
 166              		.size	scaledCurrentHall, .-scaledCurrentHall
 167              		.section	.text.voltageDividerToPercent,"ax",%progbits
 168              		.align	2
 169              		.global	voltageDividerToPercent
 170              		.thumb
 171              		.thumb_func
 172              		.type	voltageDividerToPercent, %function
 173              	voltageDividerToPercent:
 174              	.LFB66:
  29:BatteryDriver.c **** 
  30:BatteryDriver.c **** int16_t voltageDividerToPercent() {
 175              		.loc 1 30 0
 176              		.cfi_startproc
 177              		@ args = 0, pretend = 0, frame = 0
 178              		@ frame_needed = 0, uses_anonymous_args = 0
 179 0000 08B5     		push	{r3, lr}
 180              		.cfi_def_cfa_offset 8
 181              		.cfi_offset 3, -8
 182              		.cfi_offset 14, -4
 183              	.LVL21:
  31:BatteryDriver.c ****     // Defines the upper and lower limit
  32:BatteryDriver.c ****     int16_t UpperLimit = 12000;
  33:BatteryDriver.c ****     int16_t LowerLimit = 8200;
  34:BatteryDriver.c ****     
  35:BatteryDriver.c ****     // Converting the ADC value to millivolts
  36:BatteryDriver.c ****     int16_t result2 = ADC_SAR_2_CountsTo_mVolts(ADC_SAR_2_GetResult16());
 184              		.loc 1 36 0
 185 0002 FFF7FEFF 		bl	ADC_SAR_2_GetResult16
 186              	.LVL22:
 187 0006 FFF7FEFF 		bl	ADC_SAR_2_CountsTo_mVolts
 188              	.LVL23:
ARM GAS  C:\Users\perhi\AppData\Local\Temp\ccP3Gtoi.s 			page 5


  37:BatteryDriver.c **** 
  38:BatteryDriver.c ****     // Returns a scaled value that shows the charge state of the battery
  39:BatteryDriver.c ****     int16_t scaled = (result2 * 3 - LowerLimit) * 100 / (UpperLimit - LowerLimit);
 189              		.loc 1 39 0
 190 000a 00EB4000 		add	r0, r0, r0, lsl #1
 191              	.LVL24:
 192 000e A0F50050 		sub	r0, r0, #8192
 193 0012 0838     		subs	r0, r0, #8
 194 0014 6423     		movs	r3, #100
 195 0016 03FB00F0 		mul	r0, r3, r0
 196 001a 074B     		ldr	r3, .L18
 197 001c 83FB0023 		smull	r2, r3, r3, r0
 198 0020 C017     		asrs	r0, r0, #31
 199 0022 C0EBA320 		rsb	r0, r0, r3, asr #10
 200 0026 00B2     		sxth	r0, r0
 201              	.LVL25:
  40:BatteryDriver.c **** 
  41:BatteryDriver.c ****     return scaled > 100 ? 100 : (scaled < 0 ? 0 : scaled);
 202              		.loc 1 41 0
 203 0028 6428     		cmp	r0, #100
 204 002a 02DC     		bgt	.L16
 205              		.loc 1 41 0 is_stmt 0 discriminator 1
 206 002c 20EAE070 		bic	r0, r0, r0, asr #31
 207              	.LVL26:
 208 0030 08BD     		pop	{r3, pc}
 209              	.LVL27:
 210              	.L16:
 211              		.loc 1 41 0
 212 0032 6420     		movs	r0, #100
 213              	.LVL28:
  42:BatteryDriver.c **** }
 214              		.loc 1 42 0 is_stmt 1
 215 0034 08BD     		pop	{r3, pc}
 216              	.L19:
 217 0036 00BF     		.align	2
 218              	.L18:
 219 0038 353AFC44 		.word	1157380661
 220              		.cfi_endproc
 221              	.LFE66:
 222              		.size	voltageDividerToPercent, .-voltageDividerToPercent
 223              		.section	.text.ISR_UART_rx_handler,"ax",%progbits
 224              		.align	2
 225              		.global	ISR_UART_rx_handler
 226              		.thumb
 227              		.thumb_func
 228              		.type	ISR_UART_rx_handler, %function
 229              	ISR_UART_rx_handler:
 230              	.LFB67:
  43:BatteryDriver.c **** 
  44:BatteryDriver.c **** CY_ISR(ISR_UART_rx_handler) {
 231              		.loc 1 44 0
 232              		.cfi_startproc
 233              		@ args = 0, pretend = 0, frame = 0
 234              		@ frame_needed = 0, uses_anonymous_args = 0
 235 0000 38B5     		push	{r3, r4, r5, lr}
 236              		.cfi_def_cfa_offset 16
 237              		.cfi_offset 3, -16
ARM GAS  C:\Users\perhi\AppData\Local\Temp\ccP3Gtoi.s 			page 6


 238              		.cfi_offset 4, -12
 239              		.cfi_offset 5, -8
 240              		.cfi_offset 14, -4
  45:BatteryDriver.c ****     // ISR routine that handles the receiving data of the UART
  46:BatteryDriver.c ****     uint8_t bytesToRead = UART_1_GetRxBufferSize();
 241              		.loc 1 46 0
 242 0002 FFF7FEFF 		bl	UART_1_GetRxBufferSize
 243              	.LVL29:
 244 0006 0446     		mov	r4, r0
 245              	.LVL30:
  47:BatteryDriver.c ****     while (bytesToRead > 0) {
 246              		.loc 1 47 0
 247 0008 09E0     		b	.L21
 248              	.L22:
 249              	.LBB5:
  48:BatteryDriver.c ****         uint8_t byteReceived = UART_1_ReadRxData();
 250              		.loc 1 48 0
 251 000a FFF7FEFF 		bl	UART_1_ReadRxData
 252              	.LVL31:
 253 000e 0546     		mov	r5, r0
 254              	.LVL32:
  49:BatteryDriver.c ****         UART_1_WriteTxData(byteReceived); // echo back
 255              		.loc 1 49 0
 256 0010 FFF7FEFF 		bl	UART_1_WriteTxData
 257              	.LVL33:
  50:BatteryDriver.c ****         
  51:BatteryDriver.c ****         handleByteReceived(byteReceived);
 258              		.loc 1 51 0
 259 0014 2846     		mov	r0, r5
 260 0016 FFF7FEFF 		bl	handleByteReceived
 261              	.LVL34:
  52:BatteryDriver.c ****         
  53:BatteryDriver.c ****         bytesToRead--;
 262              		.loc 1 53 0
 263 001a 013C     		subs	r4, r4, #1
 264              	.LVL35:
 265 001c E4B2     		uxtb	r4, r4
 266              	.LVL36:
 267              	.L21:
 268              	.LBE5:
  47:BatteryDriver.c ****         uint8_t byteReceived = UART_1_ReadRxData();
 269              		.loc 1 47 0
 270 001e 002C     		cmp	r4, #0
 271 0020 F3D1     		bne	.L22
  54:BatteryDriver.c ****     }
  55:BatteryDriver.c **** }
 272              		.loc 1 55 0
 273 0022 38BD     		pop	{r3, r4, r5, pc}
 274              		.cfi_endproc
 275              	.LFE67:
 276              		.size	ISR_UART_rx_handler, .-ISR_UART_rx_handler
 277              		.text
 278              	.Letext0:
 279              		.file 2 "d:\\psoc creator\\4.4\\psoc creator\\import\\gnu\\arm\\5.4.1\\arm-none-eabi\\include\\mac
 280              		.file 3 "d:\\psoc creator\\4.4\\psoc creator\\import\\gnu\\arm\\5.4.1\\arm-none-eabi\\include\\sys
 281              		.file 4 "Generated_Source\\PSoC5/ADC_SAR_1.h"
 282              		.file 5 "Generated_Source\\PSoC5/ADC_SAR_2.h"
ARM GAS  C:\Users\perhi\AppData\Local\Temp\ccP3Gtoi.s 			page 7


 283              		.file 6 "Generated_Source\\PSoC5/UART_1.h"
 284              		.file 7 "BatteryDriver.h"
 285              		.file 8 "Generated_Source\\PSoC5/core_cm3.h"