ARM GAS  C:\Users\perhi\AppData\Local\Temp\ccz3GtD7.s 			page 1


   1              		.syntax unified
   2              		.cpu cortex-m3
   3              		.fpu softvfp
   4              		.eabi_attribute 20, 1
   5              		.eabi_attribute 21, 1
   6              		.eabi_attribute 23, 3
   7              		.eabi_attribute 24, 1
   8              		.eabi_attribute 25, 1
   9              		.eabi_attribute 26, 1
  10              		.eabi_attribute 30, 1
  11              		.eabi_attribute 34, 1
  12              		.eabi_attribute 18, 4
  13              		.thumb
  14              		.syntax unified
  15              		.file	"main.c"
  16              		.text
  17              	.Ltext0:
  18              		.cfi_sections	.debug_frame
  19              		.section	.text.receiveCommand,"ax",%progbits
  20              		.align	2
  21              		.global	receiveCommand
  22              		.thumb
  23              		.thumb_func
  24              		.type	receiveCommand, %function
  25              	receiveCommand:
  26              	.LFB64:
  27              		.file 1 "main.c"
   1:main.c        **** #include "project.h"
   2:main.c        **** #include "SunTracker.h"
   3:main.c        **** #include "SensorDriver.h"
   4:main.c        **** #include "StepperMotorDriver.h"
   5:main.c        **** #include "SPI.h"
   6:main.c        **** 
   7:main.c        **** uint8_t receiveCommand(void);
   8:main.c        **** 
   9:main.c        **** int main(void) {
  10:main.c        ****     CyGlobalIntEnable; // Enable global interrupts.
  11:main.c        **** 
  12:main.c        ****     SPI_Init();  // Initialize SPI
  13:main.c        **** 
  14:main.c        ****     setMode(MODE_AUTO); // Start in automatic mode
  15:main.c        **** 
  16:main.c        ****     uint32_t lastTime = 0;
  17:main.c        ****     uint32_t currentTime;
  18:main.c        ****     const uint32_t delayInterval = 600000; // Delay (10 min)
  19:main.c        **** 
  20:main.c        ****     while (true) {
  21:main.c        ****         currentTime = CySysTickGetValue();
  22:main.c        **** 
  23:main.c        ****         if (getCurrentMode() == MODE_AUTO) {
  24:main.c        ****             if ((currentTime - lastTime) >= delayInterval) {
  25:main.c        ****                 trackSun();  // Adjust the solar panel's position automatically
  26:main.c        ****                 lastTime = currentTime; // Update the last checked time
  27:main.c        ****             }
  28:main.c        ****         } else if (getCurrentMode() == MODE_MANUAL) {
  29:main.c        ****             uint8_t command = receiveCommand();
  30:main.c        ****             manualControl(command);
ARM GAS  C:\Users\perhi\AppData\Local\Temp\ccz3GtD7.s 			page 2


  31:main.c        ****         }
  32:main.c        ****     }
  33:main.c        **** 
  34:main.c        ****     return 0;
  35:main.c        **** }
  36:main.c        **** 
  37:main.c        **** uint8_t receiveCommand(void) {
  28              		.loc 1 37 0
  29              		.cfi_startproc
  30              		@ args = 0, pretend = 0, frame = 0
  31              		@ frame_needed = 0, uses_anonymous_args = 0
  32 0000 08B5     		push	{r3, lr}
  33              		.cfi_def_cfa_offset 8
  34              		.cfi_offset 3, -8
  35              		.cfi_offset 14, -4
  38:main.c        ****     return SPI_ReceiveData();
  36              		.loc 1 38 0
  37 0002 FFF7FEFF 		bl	SPI_ReceiveData
  38              	.LVL0:
  39:main.c        **** }
  39              		.loc 1 39 0
  40 0006 08BD     		pop	{r3, pc}
  41              		.cfi_endproc
  42              	.LFE64:
  43              		.size	receiveCommand, .-receiveCommand
  44              		.section	.text.main,"ax",%progbits
  45              		.align	2
  46              		.global	main
  47              		.thumb
  48              		.thumb_func
  49              		.type	main, %function
  50              	main:
  51              	.LFB63:
   9:main.c        ****     CyGlobalIntEnable; // Enable global interrupts.
  52              		.loc 1 9 0
  53              		.cfi_startproc
  54              		@ args = 0, pretend = 0, frame = 0
  55              		@ frame_needed = 0, uses_anonymous_args = 0
  56 0000 38B5     		push	{r3, r4, r5, lr}
  57              		.cfi_def_cfa_offset 16
  58              		.cfi_offset 3, -16
  59              		.cfi_offset 4, -12
  60              		.cfi_offset 5, -8
  61              		.cfi_offset 14, -4
  10:main.c        **** 
  62              		.loc 1 10 0
  63              		.syntax unified
  64              	@ 10 "main.c" 1
  65 0002 62B6     		CPSIE   i
  66              	@ 0 "" 2
  12:main.c        **** 
  67              		.loc 1 12 0
  68              		.thumb
  69              		.syntax unified
  70 0004 FFF7FEFF 		bl	SPI_Init
  71              	.LVL1:
  14:main.c        **** 
ARM GAS  C:\Users\perhi\AppData\Local\Temp\ccz3GtD7.s 			page 3


  72              		.loc 1 14 0
  73 0008 0120     		movs	r0, #1
  74 000a FFF7FEFF 		bl	setMode
  75              	.LVL2:
  16:main.c        ****     uint32_t currentTime;
  76              		.loc 1 16 0
  77 000e 0025     		movs	r5, #0
  78              	.LVL3:
  79              	.L4:
  21:main.c        **** 
  80              		.loc 1 21 0
  81 0010 FFF7FEFF 		bl	CySysTickGetValue
  82              	.LVL4:
  83 0014 0446     		mov	r4, r0
  84              	.LVL5:
  23:main.c        ****             if ((currentTime - lastTime) >= delayInterval) {
  85              		.loc 1 23 0
  86 0016 FFF7FEFF 		bl	getCurrentMode
  87              	.LVL6:
  88 001a 0128     		cmp	r0, #1
  89 001c 07D1     		bne	.L5
  24:main.c        ****                 trackSun();  // Adjust the solar panel's position automatically
  90              		.loc 1 24 0
  91 001e 621B     		subs	r2, r4, r5
  92 0020 074B     		ldr	r3, .L8
  93 0022 9A42     		cmp	r2, r3
  94 0024 F4D9     		bls	.L4
  25:main.c        ****                 lastTime = currentTime; // Update the last checked time
  95              		.loc 1 25 0
  96 0026 FFF7FEFF 		bl	trackSun
  97              	.LVL7:
  26:main.c        ****             }
  98              		.loc 1 26 0
  99 002a 2546     		mov	r5, r4
 100 002c F0E7     		b	.L4
 101              	.LVL8:
 102              	.L5:
  28:main.c        ****             uint8_t command = receiveCommand();
 103              		.loc 1 28 0
 104 002e FFF7FEFF 		bl	getCurrentMode
 105              	.LVL9:
 106 0032 0028     		cmp	r0, #0
 107 0034 ECD1     		bne	.L4
 108              	.LBB2:
  29:main.c        ****             manualControl(command);
 109              		.loc 1 29 0
 110 0036 FFF7FEFF 		bl	receiveCommand
 111              	.LVL10:
  30:main.c        ****         }
 112              		.loc 1 30 0
 113 003a FFF7FEFF 		bl	manualControl
 114              	.LVL11:
 115 003e E7E7     		b	.L4
 116              	.L9:
 117              		.align	2
 118              	.L8:
 119 0040 BF270900 		.word	599999
ARM GAS  C:\Users\perhi\AppData\Local\Temp\ccz3GtD7.s 			page 4


 120              	.LBE2:
 121              		.cfi_endproc
 122              	.LFE63:
 123              		.size	main, .-main
 124              		.text
 125              	.Letext0:
 126              		.file 2 "e:\\psoc creator\\4.4\\psoc creator\\import\\gnu\\arm\\5.4.1\\arm-none-eabi\\include\\mac
 127              		.file 3 "e:\\psoc creator\\4.4\\psoc creator\\import\\gnu\\arm\\5.4.1\\arm-none-eabi\\include\\sys
 128              		.file 4 "SPI.h"
 129              		.file 5 "SunTracker.h"
 130              		.file 6 "Generated_Source\\PSoC5/CyLib.h"
 131              		.file 7 "Generated_Source\\PSoC5/core_cm3.h"