ARM GAS  C:\Users\perhi\AppData\Local\Temp\cckg6DhL.s 			page 1


   1              		.syntax unified
   2              		.cpu cortex-m3
   3              		.fpu softvfp
   4              		.eabi_attribute 20, 1
   5              		.eabi_attribute 21, 1
   6              		.eabi_attribute 23, 3
   7              		.eabi_attribute 24, 1
   8              		.eabi_attribute 25, 1
   9              		.eabi_attribute 26, 1
  10              		.eabi_attribute 30, 1
  11              		.eabi_attribute 34, 1
  12              		.eabi_attribute 18, 4
  13              		.thumb
  14              		.syntax unified
  15              		.file	"SPI.c"
  16              		.text
  17              	.Ltext0:
  18              		.cfi_sections	.debug_frame
  19              		.section	.text.SPI_Init,"ax",%progbits
  20              		.align	2
  21              		.global	SPI_Init
  22              		.thumb
  23              		.thumb_func
  24              		.type	SPI_Init, %function
  25              	SPI_Init:
  26              	.LFB63:
  27              		.file 1 "SPI.c"
   1:SPI.c         **** #include "SPI.h"
   2:SPI.c         **** 
   3:SPI.c         **** // Initialize the SPI component
   4:SPI.c         **** void SPI_Init(void) {
  28              		.loc 1 4 0
  29              		.cfi_startproc
  30              		@ args = 0, pretend = 0, frame = 0
  31              		@ frame_needed = 0, uses_anonymous_args = 0
  32 0000 08B5     		push	{r3, lr}
  33              		.cfi_def_cfa_offset 8
  34              		.cfi_offset 3, -8
  35              		.cfi_offset 14, -4
   5:SPI.c         ****     SPIS_1_Start(); // Assuming SPIS_1 is configured as the SPI slave
  36              		.loc 1 5 0
  37 0002 FFF7FEFF 		bl	SPIS_1_Start
  38              	.LVL0:
   6:SPI.c         ****     CyGlobalIntEnable; // Enable global interrupts
  39              		.loc 1 6 0
  40              		.syntax unified
  41              	@ 6 "SPI.c" 1
  42 0006 62B6     		CPSIE   i
  43              	@ 0 "" 2
  44              		.thumb
  45              		.syntax unified
  46 0008 08BD     		pop	{r3, pc}
  47              		.cfi_endproc
  48              	.LFE63:
  49              		.size	SPI_Init, .-SPI_Init
  50 000a 00BF     		.section	.text.SPI_SendData,"ax",%progbits
  51              		.align	2
ARM GAS  C:\Users\perhi\AppData\Local\Temp\cckg6DhL.s 			page 2


  52              		.global	SPI_SendData
  53              		.thumb
  54              		.thumb_func
  55              		.type	SPI_SendData, %function
  56              	SPI_SendData:
  57              	.LFB64:
   7:SPI.c         **** }
   8:SPI.c         **** 
   9:SPI.c         **** // Send data over SPI
  10:SPI.c         **** void SPI_SendData(uint8_t data) {
  58              		.loc 1 10 0
  59              		.cfi_startproc
  60              		@ args = 0, pretend = 0, frame = 0
  61              		@ frame_needed = 0, uses_anonymous_args = 0
  62              	.LVL1:
  63 0000 10B5     		push	{r4, lr}
  64              		.cfi_def_cfa_offset 8
  65              		.cfi_offset 4, -8
  66              		.cfi_offset 14, -4
  67 0002 0446     		mov	r4, r0
  68              	.LVL2:
  69              	.L4:
  11:SPI.c         ****     while (!(SPIS_1_ReadTxStatus() & SPIS_1_STS_TX_FIFO_EMPTY)) {
  70              		.loc 1 11 0 discriminator 1
  71 0004 FFF7FEFF 		bl	SPIS_1_ReadTxStatus
  72              	.LVL3:
  73 0008 10F0040F 		tst	r0, #4
  74 000c FAD0     		beq	.L4
  12:SPI.c         ****         // Wait for TX buffer to be empty
  13:SPI.c         ****     }
  14:SPI.c         ****     SPIS_1_WriteTxData(data); // Write data to SPI
  75              		.loc 1 14 0
  76 000e 2046     		mov	r0, r4
  77 0010 FFF7FEFF 		bl	SPIS_1_WriteTxData
  78              	.LVL4:
  79 0014 10BD     		pop	{r4, pc}
  80              		.cfi_endproc
  81              	.LFE64:
  82              		.size	SPI_SendData, .-SPI_SendData
  83 0016 00BF     		.section	.text.SPI_ReceiveData,"ax",%progbits
  84              		.align	2
  85              		.global	SPI_ReceiveData
  86              		.thumb
  87              		.thumb_func
  88              		.type	SPI_ReceiveData, %function
  89              	SPI_ReceiveData:
  90              	.LFB65:
  15:SPI.c         **** }
  16:SPI.c         **** 
  17:SPI.c         **** // Receive data from SPI
  18:SPI.c         **** uint8_t SPI_ReceiveData(void) {
  91              		.loc 1 18 0
  92              		.cfi_startproc
  93              		@ args = 0, pretend = 0, frame = 0
  94              		@ frame_needed = 0, uses_anonymous_args = 0
  95 0000 08B5     		push	{r3, lr}
  96              		.cfi_def_cfa_offset 8
ARM GAS  C:\Users\perhi\AppData\Local\Temp\cckg6DhL.s 			page 3


  97              		.cfi_offset 3, -8
  98              		.cfi_offset 14, -4
  99              	.L7:
  19:SPI.c         ****     while (!(SPIS_1_ReadRxStatus() & SPIS_1_STS_RX_FIFO_NOT_EMPTY)) {
 100              		.loc 1 19 0 discriminator 1
 101 0002 FFF7FEFF 		bl	SPIS_1_ReadRxStatus
 102              	.LVL5:
 103 0006 10F0080F 		tst	r0, #8
 104 000a FAD0     		beq	.L7
  20:SPI.c         ****         // Wait for data to be received
  21:SPI.c         ****     }
  22:SPI.c         ****     return SPIS_1_ReadRxData(); // Read received data from SPI
 105              		.loc 1 22 0
 106 000c FFF7FEFF 		bl	SPIS_1_ReadRxData
 107              	.LVL6:
  23:SPI.c         **** }
 108              		.loc 1 23 0
 109 0010 08BD     		pop	{r3, pc}
 110              		.cfi_endproc
 111              	.LFE65:
 112              		.size	SPI_ReceiveData, .-SPI_ReceiveData
 113 0012 00BF     		.text
 114              	.Letext0:
 115              		.file 2 "c:\\program files (x86)\\cypress\\psoc creator\\4.4\\psoc creator\\import\\gnu\\arm\\5.4.
 116              		.file 3 "c:\\program files (x86)\\cypress\\psoc creator\\4.4\\psoc creator\\import\\gnu\\arm\\5.4.
 117              		.file 4 "Generated_Source\\PSoC5/cytypes.h"
 118              		.file 5 "Generated_Source\\PSoC5/SPIS_1.h"
 119              		.file 6 "Generated_Source\\PSoC5/core_cm3.h"