ARM GAS  C:\Users\perhi\AppData\Local\Temp\ccL29vME.s 			page 1


   1              		.syntax unified
   2              		.cpu cortex-m3
   3              		.fpu softvfp
   4              		.eabi_attribute 20, 1
   5              		.eabi_attribute 21, 1
   6              		.eabi_attribute 23, 3
   7              		.eabi_attribute 24, 1
   8              		.eabi_attribute 25, 1
   9              		.eabi_attribute 26, 1
  10              		.eabi_attribute 30, 1
  11              		.eabi_attribute 34, 1
  12              		.eabi_attribute 18, 4
  13              		.thumb
  14              		.syntax unified
  15              		.file	"SPICommunication.c"
  16              		.text
  17              	.Ltext0:
  18              		.cfi_sections	.debug_frame
  19              		.section	.text.SPI_Init,"ax",%progbits
  20              		.align	2
  21              		.global	SPI_Init
  22              		.thumb
  23              		.thumb_func
  24              		.type	SPI_Init, %function
  25              	SPI_Init:
  26              	.LFB63:
  27              		.file 1 "SPICommunication.c"
   1:SPICommunication.c **** #include "SPICommunication.h"
   2:SPICommunication.c **** #include "SPIS_1.h" // Include the SPI Slave component's generated API.
   3:SPICommunication.c **** 
   4:SPICommunication.c **** void SPI_Init() {
  28              		.loc 1 4 0
  29              		.cfi_startproc
  30              		@ args = 0, pretend = 0, frame = 0
  31              		@ frame_needed = 0, uses_anonymous_args = 0
  32 0000 08B5     		push	{r3, lr}
  33              		.cfi_def_cfa_offset 8
  34              		.cfi_offset 3, -8
  35              		.cfi_offset 14, -4
   5:SPICommunication.c ****     SPIS_1_Start(); // Initialize the SPI Slave component
  36              		.loc 1 5 0
  37 0002 FFF7FEFF 		bl	SPIS_1_Start
  38              	.LVL0:
  39 0006 08BD     		pop	{r3, pc}
  40              		.cfi_endproc
  41              	.LFE63:
  42              		.size	SPI_Init, .-SPI_Init
  43              		.section	.text.SPI_SendData,"ax",%progbits
  44              		.align	2
  45              		.global	SPI_SendData
  46              		.thumb
  47              		.thumb_func
  48              		.type	SPI_SendData, %function
  49              	SPI_SendData:
  50              	.LFB64:
   6:SPICommunication.c **** }
   7:SPICommunication.c **** 
ARM GAS  C:\Users\perhi\AppData\Local\Temp\ccL29vME.s 			page 2


   8:SPICommunication.c **** void SPI_SendData(uint8_t* data, uint16_t length) {
  51              		.loc 1 8 0
  52              		.cfi_startproc
  53              		@ args = 0, pretend = 0, frame = 0
  54              		@ frame_needed = 0, uses_anonymous_args = 0
  55              	.LVL1:
  56 0000 38B5     		push	{r3, r4, r5, lr}
  57              		.cfi_def_cfa_offset 16
  58              		.cfi_offset 3, -16
  59              		.cfi_offset 4, -12
  60              		.cfi_offset 5, -8
  61              		.cfi_offset 14, -4
  62 0002 0446     		mov	r4, r0
  63 0004 0D46     		mov	r5, r1
  64              	.LVL2:
  65              	.L4:
   9:SPICommunication.c ****     // Ensure SPI is ready and then send data
  10:SPICommunication.c ****     while (SPIS_1_GetTxBufferSize() != 0); // Wait until buffer is not full
  66              		.loc 1 10 0 discriminator 1
  67 0006 FFF7FEFF 		bl	SPIS_1_GetTxBufferSize
  68              	.LVL3:
  69 000a 0028     		cmp	r0, #0
  70 000c FBD1     		bne	.L4
  11:SPICommunication.c ****     SPIS_1_PutArray(data, length); // Send the array of data via SPI
  71              		.loc 1 11 0
  72 000e E9B2     		uxtb	r1, r5
  73 0010 2046     		mov	r0, r4
  74 0012 FFF7FEFF 		bl	SPIS_1_PutArray
  75              	.LVL4:
  76 0016 38BD     		pop	{r3, r4, r5, pc}
  77              		.cfi_endproc
  78              	.LFE64:
  79              		.size	SPI_SendData, .-SPI_SendData
  80              		.text
  81              	.Letext0:
  82              		.file 2 "e:\\psoc creator\\4.4\\psoc creator\\import\\gnu\\arm\\5.4.1\\arm-none-eabi\\include\\mac
  83              		.file 3 "e:\\psoc creator\\4.4\\psoc creator\\import\\gnu\\arm\\5.4.1\\arm-none-eabi\\include\\sys
  84              		.file 4 "Generated_Source\\PSoC5/SPIS_1.h"
  85              		.file 5 "Generated_Source\\PSoC5/core_cm3.h"