ARM GAS  C:\Users\perhi\AppData\Local\Temp\ccEcv2qo.s 			page 1


   1              		.syntax unified
   2              		.cpu cortex-m3
   3              		.fpu softvfp
   4              		.eabi_attribute 20, 1
   5              		.eabi_attribute 21, 1
   6              		.eabi_attribute 23, 3
   7              		.eabi_attribute 24, 1
   8              		.eabi_attribute 25, 1
   9              		.eabi_attribute 26, 1
  10              		.eabi_attribute 30, 1
  11              		.eabi_attribute 34, 1
  12              		.eabi_attribute 18, 4
  13              		.thumb
  14              		.syntax unified
  15              		.file	"StepperMotorDriver.c"
  16              		.text
  17              	.Ltext0:
  18              		.cfi_sections	.debug_frame
  19              		.section	.text.moveAzimuth,"ax",%progbits
  20              		.align	2
  21              		.global	moveAzimuth
  22              		.thumb
  23              		.thumb_func
  24              		.type	moveAzimuth, %function
  25              	moveAzimuth:
  26              	.LFB64:
  27              		.file 1 "StepperMotorDriver.c"
   1:StepperMotorDriver.c **** /* ========================================
   2:StepperMotorDriver.c ****  *
   3:StepperMotorDriver.c ****  *          Thomas Degn Larsen
   4:StepperMotorDriver.c ****  *
   5:StepperMotorDriver.c ****  * ========================================
   6:StepperMotorDriver.c **** */
   7:StepperMotorDriver.c **** 
   8:StepperMotorDriver.c **** #include "project.h"
   9:StepperMotorDriver.c **** #include "StepperMotorDriver.h"
  10:StepperMotorDriver.c **** #include <stdio.h>
  11:StepperMotorDriver.c **** #define STEPS 8                         // number of steps before repeat (half step = 400 steps pr 
  12:StepperMotorDriver.c **** 
  13:StepperMotorDriver.c **** /******************
  14:StepperMotorDriver.c **** **   Variables   **
  15:StepperMotorDriver.c **** ******************/
  16:StepperMotorDriver.c **** static int stepSequence[STEPS][4] = {   // step sequence for motors
  17:StepperMotorDriver.c ****     {1, 0, 0, 0},                       // step 1
  18:StepperMotorDriver.c ****     {1, 1, 0, 0},                       // step 2
  19:StepperMotorDriver.c ****     {0, 1, 0, 0},                       // step 3
  20:StepperMotorDriver.c ****     {0, 1, 1, 0},                       // step 4
  21:StepperMotorDriver.c ****     {0, 0, 1, 0},                       // step 5
  22:StepperMotorDriver.c ****     {0, 0, 1, 1},                       // step 6
  23:StepperMotorDriver.c ****     {0, 0, 0, 1},                       // step 7
  24:StepperMotorDriver.c ****     {1, 0, 0, 1}                        // step 8
  25:StepperMotorDriver.c **** };
  26:StepperMotorDriver.c **** static int off[4] = {0, 0, 0, 0};       // step used to turn of motors
  27:StepperMotorDriver.c **** static long azimuthSteps = 8000000;     // counting steps for steppermotor moving solar panel horit
  28:StepperMotorDriver.c **** static long elevationSteps = 8000000;   // counting steps for steppermotor moving solar panel verti
  29:StepperMotorDriver.c **** static int aStep = 0;                   // number of steps to be taken with azimuth motor
  30:StepperMotorDriver.c **** static int eStep = 0;                   // number of steps to be taken with elevation motor
ARM GAS  C:\Users\perhi\AppData\Local\Temp\ccEcv2qo.s 			page 2


  31:StepperMotorDriver.c **** 
  32:StepperMotorDriver.c **** 
  33:StepperMotorDriver.c **** /******************
  34:StepperMotorDriver.c **** **   Functions   **
  35:StepperMotorDriver.c **** ******************/
  36:StepperMotorDriver.c **** void moveAzimuth(int steps)
  37:StepperMotorDriver.c **** {   // function to set steps to be takben by azimuth motor
  28              		.loc 1 37 0
  29              		.cfi_startproc
  30              		@ args = 0, pretend = 0, frame = 0
  31              		@ frame_needed = 0, uses_anonymous_args = 0
  32              		@ link register save eliminated.
  33              	.LVL0:
  38:StepperMotorDriver.c ****     aStep = steps;
  34              		.loc 1 38 0
  35 0000 014B     		ldr	r3, .L2
  36 0002 1860     		str	r0, [r3]
  37 0004 7047     		bx	lr
  38              	.L3:
  39 0006 00BF     		.align	2
  40              	.L2:
  41 0008 00000000 		.word	.LANCHOR0
  42              		.cfi_endproc
  43              	.LFE64:
  44              		.size	moveAzimuth, .-moveAzimuth
  45              		.section	.text.azimuthStep,"ax",%progbits
  46              		.align	2
  47              		.global	azimuthStep
  48              		.thumb
  49              		.thumb_func
  50              		.type	azimuthStep, %function
  51              	azimuthStep:
  52              	.LFB66:
  39:StepperMotorDriver.c **** }
  40:StepperMotorDriver.c **** 
  41:StepperMotorDriver.c **** int azimuth()
  42:StepperMotorDriver.c **** {   // function to calculate next azimutgh step based and call azimuthStep()
  43:StepperMotorDriver.c ****     if (Azimuth_Pin_1_Read() == 0 && Azimuth_Pin_2_Read() == 0 && Azimuth_Pin_3_Read() == 0 && Azim
  44:StepperMotorDriver.c ****     {   // if the motor is off turn it on, on the same step as last time
  45:StepperMotorDriver.c ****         azimuthStep(stepSequence[azimuthSteps % STEPS]);
  46:StepperMotorDriver.c ****         return 0;
  47:StepperMotorDriver.c ****     }
  48:StepperMotorDriver.c ****     if (aStep > 0)
  49:StepperMotorDriver.c ****     {   // turning right (positiv steps)
  50:StepperMotorDriver.c ****         if (!Limit_Right_Read())
  51:StepperMotorDriver.c ****         {   // if right limit is reached, don't move
  52:StepperMotorDriver.c ****             aStep = 0;
  53:StepperMotorDriver.c ****             return 0;
  54:StepperMotorDriver.c ****         }
  55:StepperMotorDriver.c ****         // set azimuth motor pins to next step and decrease steps to be taken
  56:StepperMotorDriver.c ****         azimuthStep(stepSequence[++azimuthSteps % STEPS]);
  57:StepperMotorDriver.c ****         aStep = aStep - 1;
  58:StepperMotorDriver.c ****         return 1;
  59:StepperMotorDriver.c ****     }
  60:StepperMotorDriver.c ****     else if (aStep < 0)
  61:StepperMotorDriver.c ****     {    // turning left (negativ steps)
  62:StepperMotorDriver.c ****         if (!Limit_Left_Read())
ARM GAS  C:\Users\perhi\AppData\Local\Temp\ccEcv2qo.s 			page 3


  63:StepperMotorDriver.c ****         {   // if left limit is reached, don't move
  64:StepperMotorDriver.c ****             aStep = 0;
  65:StepperMotorDriver.c ****             return 0;
  66:StepperMotorDriver.c ****         }
  67:StepperMotorDriver.c ****         // set azimuth motor pins to next step and decrease steps to be taken
  68:StepperMotorDriver.c ****         azimuthStep(stepSequence[--azimuthSteps % STEPS]);
  69:StepperMotorDriver.c ****         aStep = aStep + 1;
  70:StepperMotorDriver.c ****         return 1;
  71:StepperMotorDriver.c ****     }
  72:StepperMotorDriver.c ****     return -1;
  73:StepperMotorDriver.c **** }
  74:StepperMotorDriver.c **** 
  75:StepperMotorDriver.c **** void azimuthStep(int sequence[4])
  76:StepperMotorDriver.c **** {   // function to write sequence to azimuth motor pins
  53              		.loc 1 76 0
  54              		.cfi_startproc
  55              		@ args = 0, pretend = 0, frame = 0
  56              		@ frame_needed = 0, uses_anonymous_args = 0
  57              	.LVL1:
  58 0000 10B5     		push	{r4, lr}
  59              		.cfi_def_cfa_offset 8
  60              		.cfi_offset 4, -8
  61              		.cfi_offset 14, -4
  62 0002 0446     		mov	r4, r0
  77:StepperMotorDriver.c ****     Azimuth_Pin_1_Write(sequence[0]);
  63              		.loc 1 77 0
  64 0004 0078     		ldrb	r0, [r0]	@ zero_extendqisi2
  65              	.LVL2:
  66 0006 FFF7FEFF 		bl	Azimuth_Pin_1_Write
  67              	.LVL3:
  78:StepperMotorDriver.c ****     Azimuth_Pin_2_Write(sequence[1]);
  68              		.loc 1 78 0
  69 000a 2079     		ldrb	r0, [r4, #4]	@ zero_extendqisi2
  70 000c FFF7FEFF 		bl	Azimuth_Pin_2_Write
  71              	.LVL4:
  79:StepperMotorDriver.c ****     Azimuth_Pin_3_Write(sequence[2]);
  72              		.loc 1 79 0
  73 0010 207A     		ldrb	r0, [r4, #8]	@ zero_extendqisi2
  74 0012 FFF7FEFF 		bl	Azimuth_Pin_3_Write
  75              	.LVL5:
  80:StepperMotorDriver.c ****     Azimuth_Pin_4_Write(sequence[3]);
  76              		.loc 1 80 0
  77 0016 207B     		ldrb	r0, [r4, #12]	@ zero_extendqisi2
  78 0018 FFF7FEFF 		bl	Azimuth_Pin_4_Write
  79              	.LVL6:
  80 001c 10BD     		pop	{r4, pc}
  81              		.cfi_endproc
  82              	.LFE66:
  83              		.size	azimuthStep, .-azimuthStep
  84 001e 00BF     		.section	.text.azimuth,"ax",%progbits
  85              		.align	2
  86              		.global	azimuth
  87              		.thumb
  88              		.thumb_func
  89              		.type	azimuth, %function
  90              	azimuth:
  91              	.LFB65:
ARM GAS  C:\Users\perhi\AppData\Local\Temp\ccEcv2qo.s 			page 4


  42:StepperMotorDriver.c ****     if (Azimuth_Pin_1_Read() == 0 && Azimuth_Pin_2_Read() == 0 && Azimuth_Pin_3_Read() == 0 && Azim
  92              		.loc 1 42 0
  93              		.cfi_startproc
  94              		@ args = 0, pretend = 0, frame = 0
  95              		@ frame_needed = 0, uses_anonymous_args = 0
  96 0000 08B5     		push	{r3, lr}
  97              		.cfi_def_cfa_offset 8
  98              		.cfi_offset 3, -8
  99              		.cfi_offset 14, -4
  43:StepperMotorDriver.c ****     {   // if the motor is off turn it on, on the same step as last time
 100              		.loc 1 43 0
 101 0002 FFF7FEFF 		bl	Azimuth_Pin_1_Read
 102              	.LVL7:
 103 0006 C0B9     		cbnz	r0, .L7
  43:StepperMotorDriver.c ****     {   // if the motor is off turn it on, on the same step as last time
 104              		.loc 1 43 0 is_stmt 0 discriminator 1
 105 0008 FFF7FEFF 		bl	Azimuth_Pin_2_Read
 106              	.LVL8:
 107 000c A8B9     		cbnz	r0, .L7
  43:StepperMotorDriver.c ****     {   // if the motor is off turn it on, on the same step as last time
 108              		.loc 1 43 0 discriminator 2
 109 000e FFF7FEFF 		bl	Azimuth_Pin_3_Read
 110              	.LVL9:
 111 0012 90B9     		cbnz	r0, .L7
  43:StepperMotorDriver.c ****     {   // if the motor is off turn it on, on the same step as last time
 112              		.loc 1 43 0 discriminator 3
 113 0014 FFF7FEFF 		bl	Azimuth_Pin_4_Read
 114              	.LVL10:
 115 0018 78B9     		cbnz	r0, .L7
  45:StepperMotorDriver.c ****         return 0;
 116              		.loc 1 45 0 is_stmt 1
 117 001a 284B     		ldr	r3, .L17
 118 001c 1B68     		ldr	r3, [r3]
 119 001e 284A     		ldr	r2, .L17+4
 120 0020 1340     		ands	r3, r3, r2
 121 0022 03D5     		bpl	.L8
 122 0024 013B     		subs	r3, r3, #1
 123 0026 63F00703 		orn	r3, r3, #7
 124 002a 0133     		adds	r3, r3, #1
 125              	.L8:
 126 002c 2548     		ldr	r0, .L17+8
 127 002e 00EB0310 		add	r0, r0, r3, lsl #4
 128 0032 FFF7FEFF 		bl	azimuthStep
 129              	.LVL11:
  46:StepperMotorDriver.c ****     }
 130              		.loc 1 46 0
 131 0036 0020     		movs	r0, #0
 132 0038 08BD     		pop	{r3, pc}
 133              	.L7:
  48:StepperMotorDriver.c ****     {   // turning right (positiv steps)
 134              		.loc 1 48 0
 135 003a 234B     		ldr	r3, .L17+12
 136 003c 1B68     		ldr	r3, [r3]
 137 003e 002B     		cmp	r3, #0
 138 0040 1BDD     		ble	.L10
  50:StepperMotorDriver.c ****         {   // if right limit is reached, don't move
 139              		.loc 1 50 0
ARM GAS  C:\Users\perhi\AppData\Local\Temp\ccEcv2qo.s 			page 5


 140 0042 FFF7FEFF 		bl	Limit_Right_Read
 141              	.LVL12:
 142 0046 10B9     		cbnz	r0, .L11
  52:StepperMotorDriver.c ****             return 0;
 143              		.loc 1 52 0
 144 0048 1F4B     		ldr	r3, .L17+12
 145 004a 1860     		str	r0, [r3]
  53:StepperMotorDriver.c ****         }
 146              		.loc 1 53 0
 147 004c 08BD     		pop	{r3, pc}
 148              	.L11:
  56:StepperMotorDriver.c ****         aStep = aStep - 1;
 149              		.loc 1 56 0
 150 004e 1B4A     		ldr	r2, .L17
 151 0050 1368     		ldr	r3, [r2]
 152 0052 0133     		adds	r3, r3, #1
 153 0054 1360     		str	r3, [r2]
 154 0056 1A48     		ldr	r0, .L17+4
 155 0058 0340     		ands	r3, r3, r0
 156 005a 03D5     		bpl	.L12
 157 005c 013B     		subs	r3, r3, #1
 158 005e 63F00703 		orn	r3, r3, #7
 159 0062 0133     		adds	r3, r3, #1
 160              	.L12:
 161 0064 1748     		ldr	r0, .L17+8
 162 0066 00EB0310 		add	r0, r0, r3, lsl #4
 163 006a FFF7FEFF 		bl	azimuthStep
 164              	.LVL13:
  57:StepperMotorDriver.c ****         return 1;
 165              		.loc 1 57 0
 166 006e 164A     		ldr	r2, .L17+12
 167 0070 1368     		ldr	r3, [r2]
 168 0072 013B     		subs	r3, r3, #1
 169 0074 1360     		str	r3, [r2]
  58:StepperMotorDriver.c ****     }
 170              		.loc 1 58 0
 171 0076 0120     		movs	r0, #1
 172 0078 08BD     		pop	{r3, pc}
 173              	.L10:
  60:StepperMotorDriver.c ****     {    // turning left (negativ steps)
 174              		.loc 1 60 0
 175 007a 002B     		cmp	r3, #0
 176 007c 1BDA     		bge	.L15
  62:StepperMotorDriver.c ****         {   // if left limit is reached, don't move
 177              		.loc 1 62 0
 178 007e FFF7FEFF 		bl	Limit_Left_Read
 179              	.LVL14:
 180 0082 10B9     		cbnz	r0, .L13
  64:StepperMotorDriver.c ****             return 0;
 181              		.loc 1 64 0
 182 0084 104B     		ldr	r3, .L17+12
 183 0086 1860     		str	r0, [r3]
  65:StepperMotorDriver.c ****         }
 184              		.loc 1 65 0
 185 0088 08BD     		pop	{r3, pc}
 186              	.L13:
  68:StepperMotorDriver.c ****         aStep = aStep + 1;
ARM GAS  C:\Users\perhi\AppData\Local\Temp\ccEcv2qo.s 			page 6


 187              		.loc 1 68 0
 188 008a 0C4A     		ldr	r2, .L17
 189 008c 1368     		ldr	r3, [r2]
 190 008e 013B     		subs	r3, r3, #1
 191 0090 1360     		str	r3, [r2]
 192 0092 0B48     		ldr	r0, .L17+4
 193 0094 0340     		ands	r3, r3, r0
 194 0096 03D5     		bpl	.L14
 195 0098 013B     		subs	r3, r3, #1
 196 009a 63F00703 		orn	r3, r3, #7
 197 009e 0133     		adds	r3, r3, #1
 198              	.L14:
 199 00a0 0848     		ldr	r0, .L17+8
 200 00a2 00EB0310 		add	r0, r0, r3, lsl #4
 201 00a6 FFF7FEFF 		bl	azimuthStep
 202              	.LVL15:
  69:StepperMotorDriver.c ****         return 1;
 203              		.loc 1 69 0
 204 00aa 074A     		ldr	r2, .L17+12
 205 00ac 1368     		ldr	r3, [r2]
 206 00ae 0133     		adds	r3, r3, #1
 207 00b0 1360     		str	r3, [r2]
  70:StepperMotorDriver.c ****     }
 208              		.loc 1 70 0
 209 00b2 0120     		movs	r0, #1
 210 00b4 08BD     		pop	{r3, pc}
 211              	.L15:
  72:StepperMotorDriver.c **** }
 212              		.loc 1 72 0
 213 00b6 4FF0FF30 		mov	r0, #-1
  73:StepperMotorDriver.c **** 
 214              		.loc 1 73 0
 215 00ba 08BD     		pop	{r3, pc}
 216              	.L18:
 217              		.align	2
 218              	.L17:
 219 00bc 00000000 		.word	.LANCHOR1
 220 00c0 07000080 		.word	-2147483641
 221 00c4 04000000 		.word	.LANCHOR1+4
 222 00c8 00000000 		.word	.LANCHOR0
 223              		.cfi_endproc
 224              	.LFE65:
 225              		.size	azimuth, .-azimuth
 226              		.section	.text.moveElevation,"ax",%progbits
 227              		.align	2
 228              		.global	moveElevation
 229              		.thumb
 230              		.thumb_func
 231              		.type	moveElevation, %function
 232              	moveElevation:
 233              	.LFB67:
  81:StepperMotorDriver.c **** }
  82:StepperMotorDriver.c **** 
  83:StepperMotorDriver.c **** 
  84:StepperMotorDriver.c **** void moveElevation(int steps)
  85:StepperMotorDriver.c **** {   // function to set steps to be takben by elevation motor
 234              		.loc 1 85 0
ARM GAS  C:\Users\perhi\AppData\Local\Temp\ccEcv2qo.s 			page 7


 235              		.cfi_startproc
 236              		@ args = 0, pretend = 0, frame = 0
 237              		@ frame_needed = 0, uses_anonymous_args = 0
 238              		@ link register save eliminated.
 239              	.LVL16:
  86:StepperMotorDriver.c ****     eStep = steps;
 240              		.loc 1 86 0
 241 0000 014B     		ldr	r3, .L20
 242 0002 5860     		str	r0, [r3, #4]
 243 0004 7047     		bx	lr
 244              	.L21:
 245 0006 00BF     		.align	2
 246              	.L20:
 247 0008 00000000 		.word	.LANCHOR0
 248              		.cfi_endproc
 249              	.LFE67:
 250              		.size	moveElevation, .-moveElevation
 251              		.section	.text.elevationStep,"ax",%progbits
 252              		.align	2
 253              		.global	elevationStep
 254              		.thumb
 255              		.thumb_func
 256              		.type	elevationStep, %function
 257              	elevationStep:
 258              	.LFB69:
  87:StepperMotorDriver.c **** }
  88:StepperMotorDriver.c **** 
  89:StepperMotorDriver.c **** int elevation()
  90:StepperMotorDriver.c **** {   // function to calculate next elevation step based and call elevationStep()
  91:StepperMotorDriver.c ****     if (Elevation_Pin_1_Read() == 0 && Elevation_Pin_2_Read() == 0 && Elevation_Pin_3_Read() == 0 &
  92:StepperMotorDriver.c ****     {   // if the motor is off turn it on, on the same step as last time
  93:StepperMotorDriver.c ****         elevationStep(stepSequence[elevationSteps % STEPS]);
  94:StepperMotorDriver.c ****         return 0;
  95:StepperMotorDriver.c ****     }
  96:StepperMotorDriver.c ****     if (eStep > 0)
  97:StepperMotorDriver.c ****     {   // turning down (positiv steps)
  98:StepperMotorDriver.c ****         if (!Limit_Down_Read())
  99:StepperMotorDriver.c ****         {   // if down limit is reached, don't move
 100:StepperMotorDriver.c ****             eStep = 0;
 101:StepperMotorDriver.c ****             return 0;
 102:StepperMotorDriver.c ****         }
 103:StepperMotorDriver.c ****         // set elevation motor pins to next step and decrease steps to be taken
 104:StepperMotorDriver.c ****         elevationStep(stepSequence[++elevationSteps % STEPS]);
 105:StepperMotorDriver.c ****         eStep = eStep - 1;
 106:StepperMotorDriver.c ****         return 1;
 107:StepperMotorDriver.c ****     }
 108:StepperMotorDriver.c ****     
 109:StepperMotorDriver.c ****     else if (eStep < 0)
 110:StepperMotorDriver.c ****     {   // turning up (negativ steps)
 111:StepperMotorDriver.c ****         if (!Limit_Up_Read())
 112:StepperMotorDriver.c ****         {   // if up limit is reached, don't move
 113:StepperMotorDriver.c ****             eStep = 0;
 114:StepperMotorDriver.c ****             return 0;
 115:StepperMotorDriver.c ****         }
 116:StepperMotorDriver.c ****         // set elevation motor pins to next step and decrease steps to be taken
 117:StepperMotorDriver.c ****         elevationStep(stepSequence[--elevationSteps % STEPS]);
 118:StepperMotorDriver.c ****         eStep = eStep + 1;
ARM GAS  C:\Users\perhi\AppData\Local\Temp\ccEcv2qo.s 			page 8


 119:StepperMotorDriver.c ****         return 1;
 120:StepperMotorDriver.c ****     }
 121:StepperMotorDriver.c ****     return -1;
 122:StepperMotorDriver.c **** }
 123:StepperMotorDriver.c **** 
 124:StepperMotorDriver.c **** void elevationStep(int sequence[4])
 125:StepperMotorDriver.c **** {   // function to write sequence to elevation motor pins
 259              		.loc 1 125 0
 260              		.cfi_startproc
 261              		@ args = 0, pretend = 0, frame = 0
 262              		@ frame_needed = 0, uses_anonymous_args = 0
 263              	.LVL17:
 264 0000 10B5     		push	{r4, lr}
 265              		.cfi_def_cfa_offset 8
 266              		.cfi_offset 4, -8
 267              		.cfi_offset 14, -4
 268 0002 0446     		mov	r4, r0
 126:StepperMotorDriver.c ****     Elevation_Pin_1_Write(sequence[0]);
 269              		.loc 1 126 0
 270 0004 0078     		ldrb	r0, [r0]	@ zero_extendqisi2
 271              	.LVL18:
 272 0006 FFF7FEFF 		bl	Elevation_Pin_1_Write
 273              	.LVL19:
 127:StepperMotorDriver.c ****     Elevation_Pin_2_Write(sequence[1]);
 274              		.loc 1 127 0
 275 000a 2079     		ldrb	r0, [r4, #4]	@ zero_extendqisi2
 276 000c FFF7FEFF 		bl	Elevation_Pin_2_Write
 277              	.LVL20:
 128:StepperMotorDriver.c ****     Elevation_Pin_3_Write(sequence[2]);
 278              		.loc 1 128 0
 279 0010 207A     		ldrb	r0, [r4, #8]	@ zero_extendqisi2
 280 0012 FFF7FEFF 		bl	Elevation_Pin_3_Write
 281              	.LVL21:
 129:StepperMotorDriver.c ****     Elevation_Pin_4_Write(sequence[3]);
 282              		.loc 1 129 0
 283 0016 207B     		ldrb	r0, [r4, #12]	@ zero_extendqisi2
 284 0018 FFF7FEFF 		bl	Elevation_Pin_4_Write
 285              	.LVL22:
 286 001c 10BD     		pop	{r4, pc}
 287              		.cfi_endproc
 288              	.LFE69:
 289              		.size	elevationStep, .-elevationStep
 290 001e 00BF     		.section	.text.elevation,"ax",%progbits
 291              		.align	2
 292              		.global	elevation
 293              		.thumb
 294              		.thumb_func
 295              		.type	elevation, %function
 296              	elevation:
 297              	.LFB68:
  90:StepperMotorDriver.c ****     if (Elevation_Pin_1_Read() == 0 && Elevation_Pin_2_Read() == 0 && Elevation_Pin_3_Read() == 0 &
 298              		.loc 1 90 0
 299              		.cfi_startproc
 300              		@ args = 0, pretend = 0, frame = 0
 301              		@ frame_needed = 0, uses_anonymous_args = 0
 302 0000 08B5     		push	{r3, lr}
 303              		.cfi_def_cfa_offset 8
ARM GAS  C:\Users\perhi\AppData\Local\Temp\ccEcv2qo.s 			page 9


 304              		.cfi_offset 3, -8
 305              		.cfi_offset 14, -4
  91:StepperMotorDriver.c ****     {   // if the motor is off turn it on, on the same step as last time
 306              		.loc 1 91 0
 307 0002 FFF7FEFF 		bl	Elevation_Pin_1_Read
 308              	.LVL23:
 309 0006 C8B9     		cbnz	r0, .L25
  91:StepperMotorDriver.c ****     {   // if the motor is off turn it on, on the same step as last time
 310              		.loc 1 91 0 is_stmt 0 discriminator 1
 311 0008 FFF7FEFF 		bl	Elevation_Pin_2_Read
 312              	.LVL24:
 313 000c B0B9     		cbnz	r0, .L25
  91:StepperMotorDriver.c ****     {   // if the motor is off turn it on, on the same step as last time
 314              		.loc 1 91 0 discriminator 2
 315 000e FFF7FEFF 		bl	Elevation_Pin_3_Read
 316              	.LVL25:
 317 0012 98B9     		cbnz	r0, .L25
  91:StepperMotorDriver.c ****     {   // if the motor is off turn it on, on the same step as last time
 318              		.loc 1 91 0 discriminator 3
 319 0014 FFF7FEFF 		bl	Elevation_Pin_4_Read
 320              	.LVL26:
 321 0018 80B9     		cbnz	r0, .L25
  93:StepperMotorDriver.c ****         return 0;
 322              		.loc 1 93 0 is_stmt 1
 323 001a 2B4B     		ldr	r3, .L35
 324 001c D3F88430 		ldr	r3, [r3, #132]
 325 0020 2A4A     		ldr	r2, .L35+4
 326 0022 1340     		ands	r3, r3, r2
 327 0024 03D5     		bpl	.L26
 328 0026 013B     		subs	r3, r3, #1
 329 0028 63F00703 		orn	r3, r3, #7
 330 002c 0133     		adds	r3, r3, #1
 331              	.L26:
 332 002e 2848     		ldr	r0, .L35+8
 333 0030 00EB0310 		add	r0, r0, r3, lsl #4
 334 0034 FFF7FEFF 		bl	elevationStep
 335              	.LVL27:
  94:StepperMotorDriver.c ****     }
 336              		.loc 1 94 0
 337 0038 0020     		movs	r0, #0
 338 003a 08BD     		pop	{r3, pc}
 339              	.L25:
  96:StepperMotorDriver.c ****     {   // turning down (positiv steps)
 340              		.loc 1 96 0
 341 003c 254B     		ldr	r3, .L35+12
 342 003e 5B68     		ldr	r3, [r3, #4]
 343 0040 002B     		cmp	r3, #0
 344 0042 1DDD     		ble	.L28
  98:StepperMotorDriver.c ****         {   // if down limit is reached, don't move
 345              		.loc 1 98 0
 346 0044 FFF7FEFF 		bl	Limit_Down_Read
 347              	.LVL28:
 348 0048 10B9     		cbnz	r0, .L29
 100:StepperMotorDriver.c ****             return 0;
 349              		.loc 1 100 0
 350 004a 224B     		ldr	r3, .L35+12
 351 004c 5860     		str	r0, [r3, #4]
ARM GAS  C:\Users\perhi\AppData\Local\Temp\ccEcv2qo.s 			page 10


 101:StepperMotorDriver.c ****         }
 352              		.loc 1 101 0
 353 004e 08BD     		pop	{r3, pc}
 354              	.L29:
 104:StepperMotorDriver.c ****         eStep = eStep - 1;
 355              		.loc 1 104 0
 356 0050 1D4A     		ldr	r2, .L35
 357 0052 D2F88430 		ldr	r3, [r2, #132]
 358 0056 0133     		adds	r3, r3, #1
 359 0058 C2F88430 		str	r3, [r2, #132]
 360 005c 1B48     		ldr	r0, .L35+4
 361 005e 0340     		ands	r3, r3, r0
 362 0060 03D5     		bpl	.L30
 363 0062 013B     		subs	r3, r3, #1
 364 0064 63F00703 		orn	r3, r3, #7
 365 0068 0133     		adds	r3, r3, #1
 366              	.L30:
 367 006a 1948     		ldr	r0, .L35+8
 368 006c 00EB0310 		add	r0, r0, r3, lsl #4
 369 0070 FFF7FEFF 		bl	elevationStep
 370              	.LVL29:
 105:StepperMotorDriver.c ****         return 1;
 371              		.loc 1 105 0
 372 0074 174A     		ldr	r2, .L35+12
 373 0076 5368     		ldr	r3, [r2, #4]
 374 0078 013B     		subs	r3, r3, #1
 375 007a 5360     		str	r3, [r2, #4]
 106:StepperMotorDriver.c ****     }
 376              		.loc 1 106 0
 377 007c 0120     		movs	r0, #1
 378 007e 08BD     		pop	{r3, pc}
 379              	.L28:
 109:StepperMotorDriver.c ****     {   // turning up (negativ steps)
 380              		.loc 1 109 0
 381 0080 002B     		cmp	r3, #0
 382 0082 1DDA     		bge	.L33
 111:StepperMotorDriver.c ****         {   // if up limit is reached, don't move
 383              		.loc 1 111 0
 384 0084 FFF7FEFF 		bl	Limit_Up_Read
 385              	.LVL30:
 386 0088 10B9     		cbnz	r0, .L31
 113:StepperMotorDriver.c ****             return 0;
 387              		.loc 1 113 0
 388 008a 124B     		ldr	r3, .L35+12
 389 008c 5860     		str	r0, [r3, #4]
 114:StepperMotorDriver.c ****         }
 390              		.loc 1 114 0
 391 008e 08BD     		pop	{r3, pc}
 392              	.L31:
 117:StepperMotorDriver.c ****         eStep = eStep + 1;
 393              		.loc 1 117 0
 394 0090 0D4A     		ldr	r2, .L35
 395 0092 D2F88430 		ldr	r3, [r2, #132]
 396 0096 013B     		subs	r3, r3, #1
 397 0098 C2F88430 		str	r3, [r2, #132]
 398 009c 0B48     		ldr	r0, .L35+4
 399 009e 0340     		ands	r3, r3, r0
ARM GAS  C:\Users\perhi\AppData\Local\Temp\ccEcv2qo.s 			page 11


 400 00a0 03D5     		bpl	.L32
 401 00a2 013B     		subs	r3, r3, #1
 402 00a4 63F00703 		orn	r3, r3, #7
 403 00a8 0133     		adds	r3, r3, #1
 404              	.L32:
 405 00aa 0948     		ldr	r0, .L35+8
 406 00ac 00EB0310 		add	r0, r0, r3, lsl #4
 407 00b0 FFF7FEFF 		bl	elevationStep
 408              	.LVL31:
 118:StepperMotorDriver.c ****         return 1;
 409              		.loc 1 118 0
 410 00b4 074A     		ldr	r2, .L35+12
 411 00b6 5368     		ldr	r3, [r2, #4]
 412 00b8 0133     		adds	r3, r3, #1
 413 00ba 5360     		str	r3, [r2, #4]
 119:StepperMotorDriver.c ****     }
 414              		.loc 1 119 0
 415 00bc 0120     		movs	r0, #1
 416 00be 08BD     		pop	{r3, pc}
 417              	.L33:
 121:StepperMotorDriver.c **** }
 418              		.loc 1 121 0
 419 00c0 4FF0FF30 		mov	r0, #-1
 122:StepperMotorDriver.c **** 
 420              		.loc 1 122 0
 421 00c4 08BD     		pop	{r3, pc}
 422              	.L36:
 423 00c6 00BF     		.align	2
 424              	.L35:
 425 00c8 00000000 		.word	.LANCHOR1
 426 00cc 07000080 		.word	-2147483641
 427 00d0 04000000 		.word	.LANCHOR1+4
 428 00d4 00000000 		.word	.LANCHOR0
 429              		.cfi_endproc
 430              	.LFE68:
 431              		.size	elevation, .-elevation
 432              		.section	.text.MOTOR_STEP,"ax",%progbits
 433              		.align	2
 434              		.global	MOTOR_STEP
 435              		.thumb
 436              		.thumb_func
 437              		.type	MOTOR_STEP, %function
 438              	MOTOR_STEP:
 439              	.LFB70:
 130:StepperMotorDriver.c **** }
 131:StepperMotorDriver.c **** 
 132:StepperMotorDriver.c **** 
 133:StepperMotorDriver.c **** CY_ISR(MOTOR_STEP)
 134:StepperMotorDriver.c **** {   // interupt rutine activated by clock to take steps
 440              		.loc 1 134 0
 441              		.cfi_startproc
 442              		@ args = 0, pretend = 0, frame = 0
 443              		@ frame_needed = 0, uses_anonymous_args = 0
 444 0000 08B5     		push	{r3, lr}
 445              		.cfi_def_cfa_offset 8
 446              		.cfi_offset 3, -8
 447              		.cfi_offset 14, -4
ARM GAS  C:\Users\perhi\AppData\Local\Temp\ccEcv2qo.s 			page 12


 135:StepperMotorDriver.c ****     if (aStep)
 448              		.loc 1 135 0
 449 0002 194B     		ldr	r3, .L45
 450 0004 1B68     		ldr	r3, [r3]
 451 0006 13B1     		cbz	r3, .L38
 136:StepperMotorDriver.c ****     {   // if aStep != 0 move
 137:StepperMotorDriver.c ****         azimuth();
 452              		.loc 1 137 0
 453 0008 FFF7FEFF 		bl	azimuth
 454              	.LVL32:
 455 000c 12E0     		b	.L39
 456              	.L38:
 138:StepperMotorDriver.c ****     }
 139:StepperMotorDriver.c ****     else if (Azimuth_Pin_1_Read() == 1 || Azimuth_Pin_2_Read() == 1 || Azimuth_Pin_3_Read() == 1 ||
 457              		.loc 1 139 0
 458 000e FFF7FEFF 		bl	Azimuth_Pin_1_Read
 459              	.LVL33:
 460 0012 0128     		cmp	r0, #1
 461 0014 0BD0     		beq	.L40
 462              		.loc 1 139 0 is_stmt 0 discriminator 1
 463 0016 FFF7FEFF 		bl	Azimuth_Pin_2_Read
 464              	.LVL34:
 465 001a 0128     		cmp	r0, #1
 466 001c 07D0     		beq	.L40
 467              		.loc 1 139 0 discriminator 2
 468 001e FFF7FEFF 		bl	Azimuth_Pin_3_Read
 469              	.LVL35:
 470 0022 0128     		cmp	r0, #1
 471 0024 03D0     		beq	.L40
 472              		.loc 1 139 0 discriminator 3
 473 0026 FFF7FEFF 		bl	Azimuth_Pin_4_Read
 474              	.LVL36:
 475 002a 0128     		cmp	r0, #1
 476 002c 02D1     		bne	.L39
 477              	.L40:
 140:StepperMotorDriver.c ****     {   // if we didn't move and motor is on, turn it off
 141:StepperMotorDriver.c ****         azimuthStep(off);
 478              		.loc 1 141 0 is_stmt 1
 479 002e 0F48     		ldr	r0, .L45+4
 480 0030 FFF7FEFF 		bl	azimuthStep
 481              	.LVL37:
 482              	.L39:
 142:StepperMotorDriver.c ****     }
 143:StepperMotorDriver.c ****     
 144:StepperMotorDriver.c ****     if (eStep)
 483              		.loc 1 144 0
 484 0034 0C4B     		ldr	r3, .L45
 485 0036 5B68     		ldr	r3, [r3, #4]
 486 0038 13B1     		cbz	r3, .L41
 145:StepperMotorDriver.c ****     {   // if eStep != 0 move
 146:StepperMotorDriver.c ****         elevation();
 487              		.loc 1 146 0
 488 003a FFF7FEFF 		bl	elevation
 489              	.LVL38:
 490 003e 08BD     		pop	{r3, pc}
 491              	.L41:
 147:StepperMotorDriver.c ****     }
ARM GAS  C:\Users\perhi\AppData\Local\Temp\ccEcv2qo.s 			page 13


 148:StepperMotorDriver.c ****     else if (Elevation_Pin_1_Read() == 1 || Elevation_Pin_2_Read() == 1 || Elevation_Pin_3_Read() =
 492              		.loc 1 148 0
 493 0040 FFF7FEFF 		bl	Elevation_Pin_1_Read
 494              	.LVL39:
 495 0044 0128     		cmp	r0, #1
 496 0046 0BD0     		beq	.L43
 497              		.loc 1 148 0 is_stmt 0 discriminator 1
 498 0048 FFF7FEFF 		bl	Elevation_Pin_2_Read
 499              	.LVL40:
 500 004c 0128     		cmp	r0, #1
 501 004e 07D0     		beq	.L43
 502              		.loc 1 148 0 discriminator 2
 503 0050 FFF7FEFF 		bl	Elevation_Pin_3_Read
 504              	.LVL41:
 505 0054 0128     		cmp	r0, #1
 506 0056 03D0     		beq	.L43
 507              		.loc 1 148 0 discriminator 3
 508 0058 FFF7FEFF 		bl	Elevation_Pin_4_Read
 509              	.LVL42:
 510 005c 0128     		cmp	r0, #1
 511 005e 02D1     		bne	.L37
 512              	.L43:
 149:StepperMotorDriver.c ****     {   // if we didn't move and motor is on, turn it off
 150:StepperMotorDriver.c ****         elevationStep(off);
 513              		.loc 1 150 0 is_stmt 1
 514 0060 0248     		ldr	r0, .L45+4
 515 0062 FFF7FEFF 		bl	elevationStep
 516              	.LVL43:
 517              	.L37:
 518 0066 08BD     		pop	{r3, pc}
 519              	.L46:
 520              		.align	2
 521              	.L45:
 522 0068 00000000 		.word	.LANCHOR0
 523 006c 08000000 		.word	.LANCHOR0+8
 524              		.cfi_endproc
 525              	.LFE70:
 526              		.size	MOTOR_STEP, .-MOTOR_STEP
 527              		.section	.text.limitLeft,"ax",%progbits
 528              		.align	2
 529              		.global	limitLeft
 530              		.thumb
 531              		.thumb_func
 532              		.type	limitLeft, %function
 533              	limitLeft:
 534              	.LFB71:
 151:StepperMotorDriver.c ****     }
 152:StepperMotorDriver.c **** }
 153:StepperMotorDriver.c **** 
 154:StepperMotorDriver.c **** bool limitLeft(){return !Limit_Left_Read();}
 535              		.loc 1 154 0
 536              		.cfi_startproc
 537              		@ args = 0, pretend = 0, frame = 0
 538              		@ frame_needed = 0, uses_anonymous_args = 0
 539 0000 08B5     		push	{r3, lr}
 540              		.cfi_def_cfa_offset 8
 541              		.cfi_offset 3, -8
ARM GAS  C:\Users\perhi\AppData\Local\Temp\ccEcv2qo.s 			page 14


 542              		.cfi_offset 14, -4
 543              		.loc 1 154 0
 544 0002 FFF7FEFF 		bl	Limit_Left_Read
 545              	.LVL44:
 546 0006 B0FA80F0 		clz	r0, r0
 547 000a 4009     		lsrs	r0, r0, #5
 548 000c 08BD     		pop	{r3, pc}
 549              		.cfi_endproc
 550              	.LFE71:
 551              		.size	limitLeft, .-limitLeft
 552 000e 00BF     		.section	.text.limitRight,"ax",%progbits
 553              		.align	2
 554              		.global	limitRight
 555              		.thumb
 556              		.thumb_func
 557              		.type	limitRight, %function
 558              	limitRight:
 559              	.LFB72:
 155:StepperMotorDriver.c **** 
 156:StepperMotorDriver.c **** bool limitRight(){return !Limit_Right_Read();}
 560              		.loc 1 156 0
 561              		.cfi_startproc
 562              		@ args = 0, pretend = 0, frame = 0
 563              		@ frame_needed = 0, uses_anonymous_args = 0
 564 0000 08B5     		push	{r3, lr}
 565              		.cfi_def_cfa_offset 8
 566              		.cfi_offset 3, -8
 567              		.cfi_offset 14, -4
 568              		.loc 1 156 0
 569 0002 FFF7FEFF 		bl	Limit_Right_Read
 570              	.LVL45:
 571 0006 B0FA80F0 		clz	r0, r0
 572 000a 4009     		lsrs	r0, r0, #5
 573 000c 08BD     		pop	{r3, pc}
 574              		.cfi_endproc
 575              	.LFE72:
 576              		.size	limitRight, .-limitRight
 577 000e 00BF     		.section	.text.limitUp,"ax",%progbits
 578              		.align	2
 579              		.global	limitUp
 580              		.thumb
 581              		.thumb_func
 582              		.type	limitUp, %function
 583              	limitUp:
 584              	.LFB73:
 157:StepperMotorDriver.c **** 
 158:StepperMotorDriver.c **** bool limitUp(){return !Limit_Up_Read();}
 585              		.loc 1 158 0
 586              		.cfi_startproc
 587              		@ args = 0, pretend = 0, frame = 0
 588              		@ frame_needed = 0, uses_anonymous_args = 0
 589 0000 08B5     		push	{r3, lr}
 590              		.cfi_def_cfa_offset 8
 591              		.cfi_offset 3, -8
 592              		.cfi_offset 14, -4
 593              		.loc 1 158 0
 594 0002 FFF7FEFF 		bl	Limit_Up_Read
ARM GAS  C:\Users\perhi\AppData\Local\Temp\ccEcv2qo.s 			page 15


 595              	.LVL46:
 596 0006 B0FA80F0 		clz	r0, r0
 597 000a 4009     		lsrs	r0, r0, #5
 598 000c 08BD     		pop	{r3, pc}
 599              		.cfi_endproc
 600              	.LFE73:
 601              		.size	limitUp, .-limitUp
 602 000e 00BF     		.section	.text.limitDown,"ax",%progbits
 603              		.align	2
 604              		.global	limitDown
 605              		.thumb
 606              		.thumb_func
 607              		.type	limitDown, %function
 608              	limitDown:
 609              	.LFB74:
 159:StepperMotorDriver.c **** 
 160:StepperMotorDriver.c **** bool limitDown(){return !Limit_Down_Read();}
 610              		.loc 1 160 0
 611              		.cfi_startproc
 612              		@ args = 0, pretend = 0, frame = 0
 613              		@ frame_needed = 0, uses_anonymous_args = 0
 614 0000 08B5     		push	{r3, lr}
 615              		.cfi_def_cfa_offset 8
 616              		.cfi_offset 3, -8
 617              		.cfi_offset 14, -4
 618              		.loc 1 160 0
 619 0002 FFF7FEFF 		bl	Limit_Down_Read
 620              	.LVL47:
 621 0006 B0FA80F0 		clz	r0, r0
 622 000a 4009     		lsrs	r0, r0, #5
 623 000c 08BD     		pop	{r3, pc}
 624              		.cfi_endproc
 625              	.LFE74:
 626              		.size	limitDown, .-limitDown
 627 000e 00BF     		.data
 628              		.align	2
 629              		.set	.LANCHOR1,. + 0
 630              		.type	azimuthSteps, %object
 631              		.size	azimuthSteps, 4
 632              	azimuthSteps:
 633 0000 00127A00 		.word	8000000
 634              		.type	stepSequence, %object
 635              		.size	stepSequence, 128
 636              	stepSequence:
 637 0004 01000000 		.word	1
 638 0008 00000000 		.word	0
 639 000c 00000000 		.word	0
 640 0010 00000000 		.word	0
 641 0014 01000000 		.word	1
 642 0018 01000000 		.word	1
 643 001c 00000000 		.word	0
 644 0020 00000000 		.word	0
 645 0024 00000000 		.word	0
 646 0028 01000000 		.word	1
 647 002c 00000000 		.word	0
 648 0030 00000000 		.word	0
 649 0034 00000000 		.word	0
ARM GAS  C:\Users\perhi\AppData\Local\Temp\ccEcv2qo.s 			page 16


 650 0038 01000000 		.word	1
 651 003c 01000000 		.word	1
 652 0040 00000000 		.word	0
 653 0044 00000000 		.word	0
 654 0048 00000000 		.word	0
 655 004c 01000000 		.word	1
 656 0050 00000000 		.word	0
 657 0054 00000000 		.word	0
 658 0058 00000000 		.word	0
 659 005c 01000000 		.word	1
 660 0060 01000000 		.word	1
 661 0064 00000000 		.word	0
 662 0068 00000000 		.word	0
 663 006c 00000000 		.word	0
 664 0070 01000000 		.word	1
 665 0074 01000000 		.word	1
 666 0078 00000000 		.word	0
 667 007c 00000000 		.word	0
 668 0080 01000000 		.word	1
 669              		.type	elevationSteps, %object
 670              		.size	elevationSteps, 4
 671              	elevationSteps:
 672 0084 00127A00 		.word	8000000
 673              		.bss
 674              		.align	2
 675              		.set	.LANCHOR0,. + 0
 676              		.type	aStep, %object
 677              		.size	aStep, 4
 678              	aStep:
 679 0000 00000000 		.space	4
 680              		.type	eStep, %object
 681              		.size	eStep, 4
 682              	eStep:
 683 0004 00000000 		.space	4
 684              		.type	off, %object
 685              		.size	off, 16
 686              	off:
 687 0008 00000000 		.space	16
 687      00000000 
 687      00000000 
 687      00000000 
 688              		.text
 689              	.Letext0:
 690              		.file 2 "e:\\psoc creator\\4.4\\psoc creator\\import\\gnu\\arm\\5.4.1\\arm-none-eabi\\include\\mac
 691              		.file 3 "e:\\psoc creator\\4.4\\psoc creator\\import\\gnu\\arm\\5.4.1\\arm-none-eabi\\include\\sys
 692              		.file 4 "Generated_Source\\PSoC5/Azimuth_Pin_1.h"
 693              		.file 5 "Generated_Source\\PSoC5/Azimuth_Pin_2.h"
 694              		.file 6 "Generated_Source\\PSoC5/Azimuth_Pin_3.h"
 695              		.file 7 "Generated_Source\\PSoC5/Azimuth_Pin_4.h"
 696              		.file 8 "Generated_Source\\PSoC5/Limit_Right.h"
 697              		.file 9 "Generated_Source\\PSoC5/Limit_Left.h"
 698              		.file 10 "Generated_Source\\PSoC5/Elevation_Pin_1.h"
 699              		.file 11 "Generated_Source\\PSoC5/Elevation_Pin_2.h"
 700              		.file 12 "Generated_Source\\PSoC5/Elevation_Pin_3.h"
 701              		.file 13 "Generated_Source\\PSoC5/Elevation_Pin_4.h"
 702              		.file 14 "Generated_Source\\PSoC5/Limit_Down.h"
 703              		.file 15 "Generated_Source\\PSoC5/Limit_Up.h"
ARM GAS  C:\Users\perhi\AppData\Local\Temp\ccEcv2qo.s 			page 17


 704              		.file 16 "Generated_Source\\PSoC5/core_cm3.h"