ARM GAS  C:\Users\perhi\AppData\Local\Temp\ccVcYRm2.s 			page 1


   1              		.syntax unified
   2              		.cpu cortex-m3
   3              		.fpu softvfp
   4              		.eabi_attribute 20, 1
   5              		.eabi_attribute 21, 1
   6              		.eabi_attribute 23, 3
   7              		.eabi_attribute 24, 1
   8              		.eabi_attribute 25, 1
   9              		.eabi_attribute 26, 1
  10              		.eabi_attribute 30, 1
  11              		.eabi_attribute 34, 1
  12              		.eabi_attribute 18, 4
  13              		.thumb
  14              		.syntax unified
  15              		.file	"SunTracker.c"
  16              		.text
  17              	.Ltext0:
  18              		.cfi_sections	.debug_frame
  19              		.section	.text.setMode,"ax",%progbits
  20              		.align	2
  21              		.global	setMode
  22              		.thumb
  23              		.thumb_func
  24              		.type	setMode, %function
  25              	setMode:
  26              	.LFB64:
  27              		.file 1 "SunTracker.c"
   1:SunTracker.c  **** #include "SunTracker.h"
   2:SunTracker.c  **** #include "SensorDriver.h"
   3:SunTracker.c  **** #include "StepperMotorDriver.h"
   4:SunTracker.c  **** #include "BatteryDriver.h"
   5:SunTracker.c  **** 
   6:SunTracker.c  **** static int currentMode = MODE_MANUAL; // Default is manual mode
   7:SunTracker.c  **** 
   8:SunTracker.c  **** void setMode(uint8_t command) {
  28              		.loc 1 8 0
  29              		.cfi_startproc
  30              		@ args = 0, pretend = 0, frame = 0
  31              		@ frame_needed = 0, uses_anonymous_args = 0
  32              		@ link register save eliminated.
  33              	.LVL0:
   9:SunTracker.c  ****     if (command == 16) {
  34              		.loc 1 9 0
  35 0000 1028     		cmp	r0, #16
  36 0002 06D1     		bne	.L1
  10:SunTracker.c  ****         // Toggle mode between manual and automatic
  11:SunTracker.c  ****         currentMode = (currentMode == MODE_AUTO) ? MODE_MANUAL : MODE_AUTO;
  37              		.loc 1 11 0
  38 0004 034A     		ldr	r2, .L3
  39 0006 1368     		ldr	r3, [r2]
  40 0008 13F1FF33 		adds	r3, r3, #-1
  41 000c 18BF     		it	ne
  42 000e 0123     		movne	r3, #1
  43 0010 1360     		str	r3, [r2]
  44              	.L1:
  45 0012 7047     		bx	lr
  46              	.L4:
ARM GAS  C:\Users\perhi\AppData\Local\Temp\ccVcYRm2.s 			page 2


  47              		.align	2
  48              	.L3:
  49 0014 00000000 		.word	.LANCHOR0
  50              		.cfi_endproc
  51              	.LFE64:
  52              		.size	setMode, .-setMode
  53              		.section	.text.manualControl,"ax",%progbits
  54              		.align	2
  55              		.global	manualControl
  56              		.thumb
  57              		.thumb_func
  58              		.type	manualControl, %function
  59              	manualControl:
  60              	.LFB65:
  12:SunTracker.c  ****     }
  13:SunTracker.c  **** }
  14:SunTracker.c  **** 
  15:SunTracker.c  **** void manualControl(uint8_t command) {
  61              		.loc 1 15 0
  62              		.cfi_startproc
  63              		@ args = 0, pretend = 0, frame = 0
  64              		@ frame_needed = 0, uses_anonymous_args = 0
  65              	.LVL1:
  66 0000 08B5     		push	{r3, lr}
  67              		.cfi_def_cfa_offset 8
  68              		.cfi_offset 3, -8
  69              		.cfi_offset 14, -4
  16:SunTracker.c  ****     if (currentMode == MODE_MANUAL) {
  70              		.loc 1 16 0
  71 0002 0E4B     		ldr	r3, .L13
  72 0004 1B68     		ldr	r3, [r3]
  73 0006 BBB9     		cbnz	r3, .L5
  17:SunTracker.c  ****         // Switch-case to move motors
  18:SunTracker.c  ****         switch(command) {
  74              		.loc 1 18 0
  75 0008 0138     		subs	r0, r0, #1
  76              	.LVL2:
  77 000a 0328     		cmp	r0, #3
  78 000c 14D8     		bhi	.L5
  79 000e DFE800F0 		tbb	[pc, r0]
  80              	.L8:
  81 0012 02       		.byte	(.L7-.L8)/2
  82 0013 07       		.byte	(.L9-.L8)/2
  83 0014 0B       		.byte	(.L10-.L8)/2
  84 0015 0F       		.byte	(.L11-.L8)/2
  85              		.p2align 1
  86              	.L7:
  19:SunTracker.c  ****             case 1: // Command for moving left
  20:SunTracker.c  ****                 moveAzimuth(-250); // Move left by 250 steps
  87              		.loc 1 20 0
  88 0016 6FF0F900 		mvn	r0, #249
  89 001a FFF7FEFF 		bl	moveAzimuth
  90              	.LVL3:
  21:SunTracker.c  ****                 break;
  91              		.loc 1 21 0
  92 001e 08BD     		pop	{r3, pc}
  93              	.L9:
ARM GAS  C:\Users\perhi\AppData\Local\Temp\ccVcYRm2.s 			page 3


  22:SunTracker.c  ****             case 2: // Command for moving right
  23:SunTracker.c  ****                 moveAzimuth(250); // Move right by 250 steps
  94              		.loc 1 23 0
  95 0020 FA20     		movs	r0, #250
  96 0022 FFF7FEFF 		bl	moveAzimuth
  97              	.LVL4:
  24:SunTracker.c  ****                 break;
  98              		.loc 1 24 0
  99 0026 08BD     		pop	{r3, pc}
 100              	.L10:
  25:SunTracker.c  ****             case 3: // Command for moving up
  26:SunTracker.c  ****                 moveElevation(250); // Move up by 250 steps
 101              		.loc 1 26 0
 102 0028 FA20     		movs	r0, #250
 103 002a FFF7FEFF 		bl	moveElevation
 104              	.LVL5:
  27:SunTracker.c  ****                 break;
 105              		.loc 1 27 0
 106 002e 08BD     		pop	{r3, pc}
 107              	.L11:
  28:SunTracker.c  ****             case 4: // Command for moving down
  29:SunTracker.c  ****                 moveElevation(-250); // Move down by 250 steps
 108              		.loc 1 29 0
 109 0030 6FF0F900 		mvn	r0, #249
 110 0034 FFF7FEFF 		bl	moveElevation
 111              	.LVL6:
 112              	.L5:
 113 0038 08BD     		pop	{r3, pc}
 114              	.L14:
 115 003a 00BF     		.align	2
 116              	.L13:
 117 003c 00000000 		.word	.LANCHOR0
 118              		.cfi_endproc
 119              	.LFE65:
 120              		.size	manualControl, .-manualControl
 121              		.section	.text.getCurrentMode,"ax",%progbits
 122              		.align	2
 123              		.global	getCurrentMode
 124              		.thumb
 125              		.thumb_func
 126              		.type	getCurrentMode, %function
 127              	getCurrentMode:
 128              	.LFB66:
  30:SunTracker.c  ****                 break;
  31:SunTracker.c  ****             default:
  32:SunTracker.c  ****                 // Error Handling?
  33:SunTracker.c  ****                 break;
  34:SunTracker.c  ****         }
  35:SunTracker.c  ****     }
  36:SunTracker.c  **** }
  37:SunTracker.c  **** 
  38:SunTracker.c  **** int getCurrentMode(void) {
 129              		.loc 1 38 0
 130              		.cfi_startproc
 131              		@ args = 0, pretend = 0, frame = 0
 132              		@ frame_needed = 0, uses_anonymous_args = 0
 133              		@ link register save eliminated.
ARM GAS  C:\Users\perhi\AppData\Local\Temp\ccVcYRm2.s 			page 4


  39:SunTracker.c  ****     return currentMode;
  40:SunTracker.c  **** }
 134              		.loc 1 40 0
 135 0000 014B     		ldr	r3, .L16
 136 0002 1868     		ldr	r0, [r3]
 137 0004 7047     		bx	lr
 138              	.L17:
 139 0006 00BF     		.align	2
 140              	.L16:
 141 0008 00000000 		.word	.LANCHOR0
 142              		.cfi_endproc
 143              	.LFE66:
 144              		.size	getCurrentMode, .-getCurrentMode
 145              		.section	.text.countSensorsDetectingSun,"ax",%progbits
 146              		.align	2
 147              		.global	countSensorsDetectingSun
 148              		.thumb
 149              		.thumb_func
 150              		.type	countSensorsDetectingSun, %function
 151              	countSensorsDetectingSun:
 152              	.LFB67:
  41:SunTracker.c  **** 
  42:SunTracker.c  **** int countSensorsDetectingSun() {
 153              		.loc 1 42 0
 154              		.cfi_startproc
 155              		@ args = 0, pretend = 0, frame = 0
 156              		@ frame_needed = 0, uses_anonymous_args = 0
 157 0000 10B5     		push	{r4, lr}
 158              		.cfi_def_cfa_offset 8
 159              		.cfi_offset 4, -8
 160              		.cfi_offset 14, -4
 161              	.LVL7:
  43:SunTracker.c  ****     int count = 0;
  44:SunTracker.c  ****     if (sunLeft()) count++;
 162              		.loc 1 44 0
 163 0002 FFF7FEFF 		bl	sunLeft
 164              	.LVL8:
 165 0006 08B9     		cbnz	r0, .L23
  43:SunTracker.c  ****     int count = 0;
 166              		.loc 1 43 0
 167 0008 0024     		movs	r4, #0
 168 000a 00E0     		b	.L19
 169              	.L23:
 170              		.loc 1 44 0
 171 000c 0124     		movs	r4, #1
 172              	.L19:
 173              	.LVL9:
  45:SunTracker.c  ****     if (sunRight()) count++;
 174              		.loc 1 45 0
 175 000e FFF7FEFF 		bl	sunRight
 176              	.LVL10:
 177 0012 00B1     		cbz	r0, .L20
 178              		.loc 1 45 0 is_stmt 0 discriminator 1
 179 0014 0134     		adds	r4, r4, #1
 180              	.LVL11:
 181              	.L20:
  46:SunTracker.c  ****     if (sunUp()) count++;
ARM GAS  C:\Users\perhi\AppData\Local\Temp\ccVcYRm2.s 			page 5


 182              		.loc 1 46 0 is_stmt 1
 183 0016 FFF7FEFF 		bl	sunUp
 184              	.LVL12:
 185 001a 00B1     		cbz	r0, .L21
 186              		.loc 1 46 0 is_stmt 0 discriminator 1
 187 001c 0134     		adds	r4, r4, #1
 188              	.LVL13:
 189              	.L21:
  47:SunTracker.c  ****     if (sunDown()) count++;
 190              		.loc 1 47 0 is_stmt 1
 191 001e FFF7FEFF 		bl	sunDown
 192              	.LVL14:
 193 0022 00B1     		cbz	r0, .L22
 194              		.loc 1 47 0 is_stmt 0 discriminator 1
 195 0024 0134     		adds	r4, r4, #1
 196              	.LVL15:
 197              	.L22:
  48:SunTracker.c  ****     return count;
  49:SunTracker.c  **** }
 198              		.loc 1 49 0 is_stmt 1
 199 0026 2046     		mov	r0, r4
 200 0028 10BD     		pop	{r4, pc}
 201              		.cfi_endproc
 202              	.LFE67:
 203              		.size	countSensorsDetectingSun, .-countSensorsDetectingSun
 204 002a 00BF     		.section	.text.trackSun,"ax",%progbits
 205              		.align	2
 206              		.global	trackSun
 207              		.thumb
 208              		.thumb_func
 209              		.type	trackSun, %function
 210              	trackSun:
 211              	.LFB68:
  50:SunTracker.c  **** 
  51:SunTracker.c  **** void trackSun(void) {
 212              		.loc 1 51 0
 213              		.cfi_startproc
 214              		@ args = 0, pretend = 0, frame = 0
 215              		@ frame_needed = 0, uses_anonymous_args = 0
 216 0000 F8B5     		push	{r3, r4, r5, r6, r7, lr}
 217              		.cfi_def_cfa_offset 24
 218              		.cfi_offset 3, -24
 219              		.cfi_offset 4, -20
 220              		.cfi_offset 5, -16
 221              		.cfi_offset 6, -12
 222              		.cfi_offset 7, -8
 223              		.cfi_offset 14, -4
  52:SunTracker.c  ****     // Function to track the sun automatically
  53:SunTracker.c  **** 
  54:SunTracker.c  ****     while (countSensorsDetectingSun() < 3) {
 224              		.loc 1 54 0
 225 0002 26E0     		b	.L26
 226              	.L31:
 227              	.LBB2:
  55:SunTracker.c  ****         // Read sensor statuses
  56:SunTracker.c  ****         bool left = sunLeft();
 228              		.loc 1 56 0
ARM GAS  C:\Users\perhi\AppData\Local\Temp\ccVcYRm2.s 			page 6


 229 0004 FFF7FEFF 		bl	sunLeft
 230              	.LVL16:
 231 0008 0546     		mov	r5, r0
 232              	.LVL17:
  57:SunTracker.c  ****         bool right = sunRight();
 233              		.loc 1 57 0
 234 000a FFF7FEFF 		bl	sunRight
 235              	.LVL18:
 236 000e 0746     		mov	r7, r0
 237              	.LVL19:
  58:SunTracker.c  ****         bool up = sunUp();
 238              		.loc 1 58 0
 239 0010 FFF7FEFF 		bl	sunUp
 240              	.LVL20:
 241 0014 0446     		mov	r4, r0
 242              	.LVL21:
  59:SunTracker.c  ****         bool down = sunDown();
 243              		.loc 1 59 0
 244 0016 FFF7FEFF 		bl	sunDown
 245              	.LVL22:
 246 001a 0646     		mov	r6, r0
 247              	.LVL23:
  60:SunTracker.c  **** 
  61:SunTracker.c  ****         // Determine horizontal movement
  62:SunTracker.c  ****         if (left && !right) {
 248              		.loc 1 62 0
 249 001c 2DB1     		cbz	r5, .L27
 250              		.loc 1 62 0 is_stmt 0 discriminator 1
 251 001e 27B9     		cbnz	r7, .L27
  63:SunTracker.c  ****             moveAzimuth(-50); // Move left
 252              		.loc 1 63 0 is_stmt 1
 253 0020 6FF03100 		mvn	r0, #49
 254 0024 FFF7FEFF 		bl	moveAzimuth
 255              	.LVL24:
 256 0028 04E0     		b	.L28
 257              	.L27:
  64:SunTracker.c  ****         } else if (right && !left) {
 258              		.loc 1 64 0
 259 002a 1FB1     		cbz	r7, .L28
 260              		.loc 1 64 0 is_stmt 0 discriminator 1
 261 002c 15B9     		cbnz	r5, .L28
  65:SunTracker.c  ****             moveAzimuth(50); // Move right
 262              		.loc 1 65 0 is_stmt 1
 263 002e 3220     		movs	r0, #50
 264 0030 FFF7FEFF 		bl	moveAzimuth
 265              	.LVL25:
 266              	.L28:
  66:SunTracker.c  ****         }
  67:SunTracker.c  **** 
  68:SunTracker.c  ****         // Determine vertical movement
  69:SunTracker.c  ****         if (up && !down) {
 267              		.loc 1 69 0
 268 0034 24B1     		cbz	r4, .L29
 269              		.loc 1 69 0 is_stmt 0 discriminator 1
 270 0036 1EB9     		cbnz	r6, .L29
  70:SunTracker.c  ****             moveElevation(50); // Move up
 271              		.loc 1 70 0 is_stmt 1
ARM GAS  C:\Users\perhi\AppData\Local\Temp\ccVcYRm2.s 			page 7


 272 0038 3220     		movs	r0, #50
 273 003a FFF7FEFF 		bl	moveElevation
 274              	.LVL26:
 275 003e 05E0     		b	.L30
 276              	.L29:
  71:SunTracker.c  ****         } else if (down && !up) {
 277              		.loc 1 71 0
 278 0040 26B1     		cbz	r6, .L30
 279              		.loc 1 71 0 is_stmt 0 discriminator 1
 280 0042 1CB9     		cbnz	r4, .L30
  72:SunTracker.c  ****             moveElevation(-50); // Move down
 281              		.loc 1 72 0 is_stmt 1
 282 0044 6FF03100 		mvn	r0, #49
 283 0048 FFF7FEFF 		bl	moveElevation
 284              	.LVL27:
 285              	.L30:
  73:SunTracker.c  ****         }
  74:SunTracker.c  **** 
  75:SunTracker.c  ****         CyDelay(100); // Small delay to allow motors to move
 286              		.loc 1 75 0
 287 004c 6420     		movs	r0, #100
 288 004e FFF7FEFF 		bl	CyDelay
 289              	.LVL28:
 290              	.L26:
 291              	.LBE2:
  54:SunTracker.c  ****         // Read sensor statuses
 292              		.loc 1 54 0
 293 0052 FFF7FEFF 		bl	countSensorsDetectingSun
 294              	.LVL29:
 295 0056 0228     		cmp	r0, #2
 296 0058 D4DD     		ble	.L31
  76:SunTracker.c  ****     }
  77:SunTracker.c  **** }
 297              		.loc 1 77 0
 298 005a F8BD     		pop	{r3, r4, r5, r6, r7, pc}
 299              		.cfi_endproc
 300              	.LFE68:
 301              		.size	trackSun, .-trackSun
 302              		.section	.text.sendData,"ax",%progbits
 303              		.align	2
 304              		.global	sendData
 305              		.thumb
 306              		.thumb_func
 307              		.type	sendData, %function
 308              	sendData:
 309              	.LFB69:
  78:SunTracker.c  **** 
  79:SunTracker.c  **** void sendData(void) {
 310              		.loc 1 79 0
 311              		.cfi_startproc
 312              		@ args = 0, pretend = 0, frame = 24
 313              		@ frame_needed = 0, uses_anonymous_args = 0
 314 0000 2DE9F04F 		push	{r4, r5, r6, r7, r8, r9, r10, fp, lr}
 315              		.cfi_def_cfa_offset 36
 316              		.cfi_offset 4, -36
 317              		.cfi_offset 5, -32
 318              		.cfi_offset 6, -28
ARM GAS  C:\Users\perhi\AppData\Local\Temp\ccVcYRm2.s 			page 8


 319              		.cfi_offset 7, -24
 320              		.cfi_offset 8, -20
 321              		.cfi_offset 9, -16
 322              		.cfi_offset 10, -12
 323              		.cfi_offset 11, -8
 324              		.cfi_offset 14, -4
 325 0004 87B0     		sub	sp, sp, #28
 326              		.cfi_def_cfa_offset 64
 327              	.LVL30:
  80:SunTracker.c  ****     uint8_t start = 0xAA;                // Start
  81:SunTracker.c  ****     uint16_t azimuth = (uint16_t)getAzimuthPosition();  // Actual azimuth position, full range
 328              		.loc 1 81 0
 329 0006 FFF7FEFF 		bl	getAzimuthPosition
 330              	.LVL31:
 331 000a 8046     		mov	r8, r0
 332 000c 85B2     		uxth	r5, r0
 333              	.LVL32:
  82:SunTracker.c  ****     uint16_t elevation = (uint16_t)getElevationPosition(); // Actual elevation position, full range
 334              		.loc 1 82 0
 335 000e FFF7FEFF 		bl	getElevationPosition
 336              	.LVL33:
 337 0012 0746     		mov	r7, r0
 338 0014 84B2     		uxth	r4, r0
 339              	.LVL34:
  83:SunTracker.c  ****     uint16_t batteryAmp = scaledCurrentHall();  // Scaled battery current
 340              		.loc 1 83 0
 341 0016 FFF7FEFF 		bl	scaledCurrentHall
 342              	.LVL35:
 343 001a 0646     		mov	r6, r0
 344              	.LVL36:
  84:SunTracker.c  ****     uint8_t batteryStatus = (uint8_t)voltageDividerToPercent();  // Define battery status, in perce
 345              		.loc 1 84 0
 346 001c FFF7FEFF 		bl	voltageDividerToPercent
 347              	.LVL37:
 348 0020 5FFA80FB 		uxtb	fp, r0
 349              	.LVL38:
  85:SunTracker.c  ****     uint8_t sun_left = sunLeft();        // Define sun sensor on the left
 350              		.loc 1 85 0
 351 0024 FFF7FEFF 		bl	sunLeft
 352              	.LVL39:
 353 0028 8246     		mov	r10, r0
 354              	.LVL40:
  86:SunTracker.c  ****     uint8_t sun_right = sunRight();      // Define sun sensor on the right
 355              		.loc 1 86 0
 356 002a FFF7FEFF 		bl	sunRight
 357              	.LVL41:
 358 002e 8146     		mov	r9, r0
 359              	.LVL42:
  87:SunTracker.c  ****     uint8_t sun_up = sunUp();            // Define sun sensor up
 360              		.loc 1 87 0
 361 0030 FFF7FEFF 		bl	sunUp
 362              	.LVL43:
 363 0034 0190     		str	r0, [sp, #4]
 364              	.LVL44:
  88:SunTracker.c  ****     uint8_t sun_down = sunDown();        // Define sun sensor down
 365              		.loc 1 88 0
 366 0036 FFF7FEFF 		bl	sunDown
ARM GAS  C:\Users\perhi\AppData\Local\Temp\ccVcYRm2.s 			page 9


 367              	.LVL45:
  89:SunTracker.c  ****     uint8_t stop = 0xBB;                 // Stop
  90:SunTracker.c  ****     
  91:SunTracker.c  ****     // Data to send (note the 16-bit positions and current are split into two bytes)
  92:SunTracker.c  ****     uint8_t dataSequence[] = {
 368              		.loc 1 92 0
 369 003a AA23     		movs	r3, #170
 370 003c 8DF80830 		strb	r3, [sp, #8]
  93:SunTracker.c  ****         start,
  94:SunTracker.c  ****         (uint8_t)(azimuth >> 8), // High byte of azimuth
 371              		.loc 1 94 0
 372 0040 2D0A     		lsrs	r5, r5, #8
 373              	.LVL46:
  92:SunTracker.c  ****         start,
 374              		.loc 1 92 0
 375 0042 8DF80950 		strb	r5, [sp, #9]
 376 0046 8DF80A80 		strb	r8, [sp, #10]
  95:SunTracker.c  ****         (uint8_t)(azimuth & 0xFF), // Low byte of azimuth
  96:SunTracker.c  ****         (uint8_t)(elevation >> 8), // High byte of elevation
 377              		.loc 1 96 0
 378 004a 240A     		lsrs	r4, r4, #8
 379              	.LVL47:
  92:SunTracker.c  ****         start,
 380              		.loc 1 92 0
 381 004c 8DF80B40 		strb	r4, [sp, #11]
 382 0050 8DF80C70 		strb	r7, [sp, #12]
  97:SunTracker.c  ****         (uint8_t)(elevation & 0xFF), // Low byte of elevation
  98:SunTracker.c  ****         (uint8_t)(batteryAmp >> 8), // High byte of battery current
 383              		.loc 1 98 0
 384 0054 C6F30723 		ubfx	r3, r6, #8, #8
  92:SunTracker.c  ****         start,
 385              		.loc 1 92 0
 386 0058 8DF80D30 		strb	r3, [sp, #13]
 387 005c 8DF80E60 		strb	r6, [sp, #14]
 388 0060 8DF80FB0 		strb	fp, [sp, #15]
 389 0064 8DF810A0 		strb	r10, [sp, #16]
 390 0068 8DF81190 		strb	r9, [sp, #17]
 391 006c 9DF80430 		ldrb	r3, [sp, #4]	@ zero_extendqisi2
 392 0070 8DF81230 		strb	r3, [sp, #18]
 393 0074 8DF81300 		strb	r0, [sp, #19]
 394 0078 BB23     		movs	r3, #187
 395 007a 8DF81430 		strb	r3, [sp, #20]
 396              	.LVL48:
 397              	.LBB3:
  99:SunTracker.c  ****         (uint8_t)(batteryAmp & 0xFF), // Low byte of battery current
 100:SunTracker.c  ****         batteryStatus,
 101:SunTracker.c  ****         sun_left,
 102:SunTracker.c  ****         sun_right,
 103:SunTracker.c  ****         sun_up,
 104:SunTracker.c  ****         sun_down,
 105:SunTracker.c  ****         stop
 106:SunTracker.c  ****     };
 107:SunTracker.c  ****     
 108:SunTracker.c  ****     // Transmit data over SPI (assuming SPIS_1 is the SPI component used)
 109:SunTracker.c  ****     for (size_t i = 0; i < sizeof(dataSequence); i++) {
 398              		.loc 1 109 0
 399 007e 0024     		movs	r4, #0
ARM GAS  C:\Users\perhi\AppData\Local\Temp\ccVcYRm2.s 			page 10


 400 0080 06E0     		b	.L34
 401              	.LVL49:
 402              	.L35:
 110:SunTracker.c  ****         SPIS_1_WriteTxData(dataSequence[i]);
 403              		.loc 1 110 0 discriminator 3
 404 0082 06AB     		add	r3, sp, #24
 405 0084 2344     		add	r3, r3, r4
 406 0086 13F8100C 		ldrb	r0, [r3, #-16]	@ zero_extendqisi2
 407 008a FFF7FEFF 		bl	SPIS_1_WriteTxData
 408              	.LVL50:
 109:SunTracker.c  ****         SPIS_1_WriteTxData(dataSequence[i]);
 409              		.loc 1 109 0 discriminator 3
 410 008e 0134     		adds	r4, r4, #1
 411              	.LVL51:
 412              	.L34:
 109:SunTracker.c  ****         SPIS_1_WriteTxData(dataSequence[i]);
 413              		.loc 1 109 0 is_stmt 0 discriminator 1
 414 0090 0C2C     		cmp	r4, #12
 415 0092 F6D9     		bls	.L35
 416              	.LBE3:
 111:SunTracker.c  ****     }
 112:SunTracker.c  **** }
 417              		.loc 1 112 0 is_stmt 1
 418 0094 07B0     		add	sp, sp, #28
 419              		.cfi_def_cfa_offset 36
 420              		@ sp needed
 421 0096 BDE8F08F 		pop	{r4, r5, r6, r7, r8, r9, r10, fp, pc}
 422              		.cfi_endproc
 423              	.LFE69:
 424              		.size	sendData, .-sendData
 425 009a 00BF     		.bss
 426              		.align	2
 427              		.set	.LANCHOR0,. + 0
 428              		.type	currentMode, %object
 429              		.size	currentMode, 4
 430              	currentMode:
 431 0000 00000000 		.space	4
 432              		.text
 433              	.Letext0:
 434              		.file 2 "d:\\psoc creator\\4.4\\psoc creator\\import\\gnu\\arm\\5.4.1\\arm-none-eabi\\include\\mac
 435              		.file 3 "d:\\psoc creator\\4.4\\psoc creator\\import\\gnu\\arm\\5.4.1\\arm-none-eabi\\include\\sys
 436              		.file 4 "d:\\psoc creator\\4.4\\psoc creator\\import\\gnu\\arm\\5.4.1\\lib\\gcc\\arm-none-eabi\\5.
 437              		.file 5 "StepperMotorDriver.h"
 438              		.file 6 "SensorDriver.h"
 439              		.file 7 "Generated_Source\\PSoC5/CyLib.h"
 440              		.file 8 "Generated_Source\\PSoC5/SPIS_1.h"
 441              		.file 9 "BatteryDriver.h"
 442              		.file 10 "Generated_Source\\PSoC5/core_cm3.h"