ARM GAS  C:\Users\andre\AppData\Local\Temp\ccQGfqTg.s 			page 1


   1              		.syntax unified
   2              		.cpu cortex-m3
   3              		.fpu softvfp
   4              		.eabi_attribute 20, 1
   5              		.eabi_attribute 21, 1
   6              		.eabi_attribute 23, 3
   7              		.eabi_attribute 24, 1
   8              		.eabi_attribute 25, 1
   9              		.eabi_attribute 26, 1
  10              		.eabi_attribute 30, 1
  11              		.eabi_attribute 34, 1
  12              		.eabi_attribute 18, 4
  13              		.thumb
  14              		.syntax unified
  15              		.file	"BatteriDriver.c"
  16              		.text
  17              	.Ltext0:
  18              		.cfi_sections	.debug_frame
  19              		.section	.text.currentHall,"ax",%progbits
  20              		.align	2
  21              		.global	currentHall
  22              		.thumb
  23              		.thumb_func
  24              		.type	currentHall, %function
  25              	currentHall:
  26              	.LFB63:
  27              		.file 1 "BatteriDriver.c"
   1:BatteriDriver.c **** /* ========================================
   2:BatteriDriver.c ****  *
   3:BatteriDriver.c ****  * Copyright YOUR COMPANY, THE YEAR
   4:BatteriDriver.c ****  * All Rights Reserved
   5:BatteriDriver.c ****  * UNPUBLISHED, LICENSED SOFTWARE.
   6:BatteriDriver.c ****  *
   7:BatteriDriver.c ****  * CONFIDENTIAL AND PROPRIETARY INFORMATION
   8:BatteriDriver.c ****  * WHICH IS THE PROPERTY OF your company.
   9:BatteriDriver.c ****  *
  10:BatteriDriver.c ****  * ========================================
  11:BatteriDriver.c **** */
  12:BatteriDriver.c **** #include"BatteriDriver.h"
  13:BatteriDriver.c **** 
  14:BatteriDriver.c **** 
  15:BatteriDriver.c **** int16_t currentHall()
  16:BatteriDriver.c **** {
  28              		.loc 1 16 0
  29              		.cfi_startproc
  30              		@ args = 0, pretend = 0, frame = 0
  31              		@ frame_needed = 0, uses_anonymous_args = 0
  32 0000 38B5     		push	{r3, r4, r5, lr}
  33              		.cfi_def_cfa_offset 16
  34              		.cfi_offset 3, -16
  35              		.cfi_offset 4, -12
  36              		.cfi_offset 5, -8
  37              		.cfi_offset 14, -4
  38              	.LVL0:
  39              	.LBB2:
  17:BatteriDriver.c ****     
  18:BatteriDriver.c ****     
ARM GAS  C:\Users\andre\AppData\Local\Temp\ccQGfqTg.s 			page 2


  19:BatteriDriver.c ****     int32_t sum = 0;
  20:BatteriDriver.c ****     
  21:BatteriDriver.c ****     for (int i = 0; i < 1000; i++)
  40              		.loc 1 21 0
  41 0002 0024     		movs	r4, #0
  42              	.LBE2:
  19:BatteriDriver.c ****     
  43              		.loc 1 19 0
  44 0004 2546     		mov	r5, r4
  45              	.LBB4:
  46              		.loc 1 21 0
  47 0006 05E0     		b	.L2
  48              	.LVL1:
  49              	.L3:
  50              	.LBB3:
  22:BatteriDriver.c ****     {
  23:BatteriDriver.c ****         
  24:BatteriDriver.c ****         int16_t result1 = ADC_SAR_1_CountsTo_mVolts(ADC_SAR_1_GetResult16()); 
  51              		.loc 1 24 0 discriminator 3
  52 0008 FFF7FEFF 		bl	ADC_SAR_1_GetResult16
  53              	.LVL2:
  54 000c FFF7FEFF 		bl	ADC_SAR_1_CountsTo_mVolts
  55              	.LVL3:
  25:BatteriDriver.c ****         
  26:BatteriDriver.c ****         sum+= result1;
  56              		.loc 1 26 0 discriminator 3
  57 0010 0544     		add	r5, r5, r0
  58              	.LVL4:
  59              	.LBE3:
  21:BatteriDriver.c ****     {
  60              		.loc 1 21 0 discriminator 3
  61 0012 0134     		adds	r4, r4, #1
  62              	.LVL5:
  63              	.L2:
  21:BatteriDriver.c ****     {
  64              		.loc 1 21 0 is_stmt 0 discriminator 1
  65 0014 B4F57A7F 		cmp	r4, #1000
  66 0018 F6DB     		blt	.L3
  67              	.LBE4:
  27:BatteriDriver.c ****     }
  28:BatteriDriver.c ****     
  29:BatteriDriver.c ****     return sum/1000;
  68              		.loc 1 29 0 is_stmt 1
  69 001a 0448     		ldr	r0, .L5
  70 001c 80FB0530 		smull	r3, r0, r0, r5
  71 0020 ED17     		asrs	r5, r5, #31
  72              	.LVL6:
  73 0022 C5EBA010 		rsb	r0, r5, r0, asr #6
  30:BatteriDriver.c ****     
  31:BatteriDriver.c **** }
  74              		.loc 1 31 0
  75 0026 00B2     		sxth	r0, r0
  76 0028 38BD     		pop	{r3, r4, r5, pc}
  77              	.LVL7:
  78              	.L6:
  79 002a 00BF     		.align	2
  80              	.L5:
ARM GAS  C:\Users\andre\AppData\Local\Temp\ccQGfqTg.s 			page 3


  81 002c D34D6210 		.word	274877907
  82              		.cfi_endproc
  83              	.LFE63:
  84              		.size	currentHall, .-currentHall
  85              		.section	.text.voltageDividerToPercent,"ax",%progbits
  86              		.align	2
  87              		.global	voltageDividerToPercent
  88              		.thumb
  89              		.thumb_func
  90              		.type	voltageDividerToPercent, %function
  91              	voltageDividerToPercent:
  92              	.LFB64:
  32:BatteriDriver.c **** int16_t voltageDividerToPercent()
  33:BatteriDriver.c **** {
  93              		.loc 1 33 0
  94              		.cfi_startproc
  95              		@ args = 0, pretend = 0, frame = 0
  96              		@ frame_needed = 0, uses_anonymous_args = 0
  97 0000 08B5     		push	{r3, lr}
  98              		.cfi_def_cfa_offset 8
  99              		.cfi_offset 3, -8
 100              		.cfi_offset 14, -4
 101              	.LVL8:
  34:BatteriDriver.c ****    int16_t UpperLimit = 12000;
  35:BatteriDriver.c ****    int16_t LowerLimit = 8200;
  36:BatteriDriver.c ****    int16_t result2 = ADC_SAR_2_CountsTo_mVolts(ADC_SAR_2_GetResult16());
 102              		.loc 1 36 0
 103 0002 FFF7FEFF 		bl	ADC_SAR_2_GetResult16
 104              	.LVL9:
 105 0006 FFF7FEFF 		bl	ADC_SAR_2_CountsTo_mVolts
 106              	.LVL10:
  37:BatteriDriver.c ****    int16_t scaled = (result2 * 3 - LowerLimit) * 100 / (UpperLimit - LowerLimit);
 107              		.loc 1 37 0
 108 000a 00EB4000 		add	r0, r0, r0, lsl #1
 109              	.LVL11:
 110 000e A0F50050 		sub	r0, r0, #8192
 111 0012 0838     		subs	r0, r0, #8
 112 0014 6423     		movs	r3, #100
 113 0016 03FB00F0 		mul	r0, r3, r0
 114 001a 074B     		ldr	r3, .L11
 115 001c 83FB0023 		smull	r2, r3, r3, r0
 116 0020 C017     		asrs	r0, r0, #31
 117 0022 C0EBA320 		rsb	r0, r0, r3, asr #10
 118 0026 00B2     		sxth	r0, r0
 119              	.LVL12:
  38:BatteriDriver.c ****    return scaled > 100 ? 100 : (scaled < 0 ? 0 : scaled);
 120              		.loc 1 38 0
 121 0028 6428     		cmp	r0, #100
 122 002a 02DC     		bgt	.L9
 123              		.loc 1 38 0 is_stmt 0 discriminator 1
 124 002c 20EAE070 		bic	r0, r0, r0, asr #31
 125              	.LVL13:
 126 0030 08BD     		pop	{r3, pc}
 127              	.LVL14:
 128              	.L9:
 129              		.loc 1 38 0
 130 0032 6420     		movs	r0, #100
ARM GAS  C:\Users\andre\AppData\Local\Temp\ccQGfqTg.s 			page 4


 131              	.LVL15:
  39:BatteriDriver.c **** }
 132              		.loc 1 39 0 is_stmt 1
 133 0034 08BD     		pop	{r3, pc}
 134              	.L12:
 135 0036 00BF     		.align	2
 136              	.L11:
 137 0038 353AFC44 		.word	1157380661
 138              		.cfi_endproc
 139              	.LFE64:
 140              		.size	voltageDividerToPercent, .-voltageDividerToPercent
 141              		.text
 142              	.Letext0:
 143              		.file 2 "c:\\program files (x86)\\cypress\\psoc creator\\4.4\\psoc creator\\import\\gnu\\arm\\5.4.
 144              		.file 3 "c:\\program files (x86)\\cypress\\psoc creator\\4.4\\psoc creator\\import\\gnu\\arm\\5.4.
 145              		.file 4 "Generated_Source\\PSoC5/ADC_SAR_1.h"
 146              		.file 5 "Generated_Source\\PSoC5/ADC_SAR_2.h"
 147              		.file 6 "Generated_Source\\PSoC5/core_cm3.h"