ARM GAS  C:\Users\andre\AppData\Local\Temp\ccBHtHQ3.s 			page 1


   1              		.syntax unified
   2              		.cpu cortex-m3
   3              		.fpu softvfp
   4              		.eabi_attribute 20, 1
   5              		.eabi_attribute 21, 1
   6              		.eabi_attribute 23, 3
   7              		.eabi_attribute 24, 1
   8              		.eabi_attribute 25, 1
   9              		.eabi_attribute 26, 1
  10              		.eabi_attribute 30, 1
  11              		.eabi_attribute 34, 1
  12              		.eabi_attribute 18, 4
  13              		.thumb
  14              		.syntax unified
  15              		.file	"BatteryDriver.c"
  16              		.text
  17              	.Ltext0:
  18              		.cfi_sections	.debug_frame
  19              		.section	.text.currentHall,"ax",%progbits
  20              		.align	2
  21              		.global	currentHall
  22              		.thumb
  23              		.thumb_func
  24              		.type	currentHall, %function
  25              	currentHall:
  26              	.LFB64:
  27              		.file 1 "BatteryDriver.c"
   1:BatteryDriver.c **** /* ========================================
   2:BatteryDriver.c ****  *
   3:BatteryDriver.c ****  * Andreas Strander Jakobsen
   4:BatteryDriver.c ****  * AU677469
   5:BatteryDriver.c ****  *
   6:BatteryDriver.c ****  * ========================================
   7:BatteryDriver.c **** */
   8:BatteryDriver.c **** #include"BatteryDriver.h"
   9:BatteryDriver.c **** 
  10:BatteryDriver.c **** 
  11:BatteryDriver.c **** int16_t currentHall()
  12:BatteryDriver.c **** {
  28              		.loc 1 12 0
  29              		.cfi_startproc
  30              		@ args = 0, pretend = 0, frame = 0
  31              		@ frame_needed = 0, uses_anonymous_args = 0
  32 0000 38B5     		push	{r3, r4, r5, lr}
  33              		.cfi_def_cfa_offset 16
  34              		.cfi_offset 3, -16
  35              		.cfi_offset 4, -12
  36              		.cfi_offset 5, -8
  37              		.cfi_offset 14, -4
  38              	.LVL0:
  39              	.LBB2:
  13:BatteryDriver.c ****     int32_t sum = 0;
  14:BatteryDriver.c ****     
  15:BatteryDriver.c ****     for (int i = 0; i < 1000; i++)
  40              		.loc 1 15 0
  41 0002 0024     		movs	r4, #0
  42              	.LBE2:
ARM GAS  C:\Users\andre\AppData\Local\Temp\ccBHtHQ3.s 			page 2


  13:BatteryDriver.c ****     int32_t sum = 0;
  43              		.loc 1 13 0
  44 0004 2546     		mov	r5, r4
  45              	.LBB4:
  46              		.loc 1 15 0
  47 0006 05E0     		b	.L2
  48              	.LVL1:
  49              	.L3:
  50              	.LBB3:
  16:BatteryDriver.c ****     {
  17:BatteryDriver.c ****         //This iteration summarizes 1000 measurements, with the purpose of returning a mean value.
  18:BatteryDriver.c ****         int16_t result1 = ADC_SAR_1_CountsTo_mVolts(ADC_SAR_1_GetResult16()); 
  51              		.loc 1 18 0 discriminator 3
  52 0008 FFF7FEFF 		bl	ADC_SAR_1_GetResult16
  53              	.LVL2:
  54 000c FFF7FEFF 		bl	ADC_SAR_1_CountsTo_mVolts
  55              	.LVL3:
  19:BatteryDriver.c ****         
  20:BatteryDriver.c ****         sum+= result1;
  56              		.loc 1 20 0 discriminator 3
  57 0010 0544     		add	r5, r5, r0
  58              	.LVL4:
  59              	.LBE3:
  15:BatteryDriver.c ****     {
  60              		.loc 1 15 0 discriminator 3
  61 0012 0134     		adds	r4, r4, #1
  62              	.LVL5:
  63              	.L2:
  15:BatteryDriver.c ****     {
  64              		.loc 1 15 0 is_stmt 0 discriminator 1
  65 0014 B4F57A7F 		cmp	r4, #1000
  66 0018 F6DB     		blt	.L3
  67              	.LBE4:
  21:BatteryDriver.c ****     }
  22:BatteryDriver.c ****     //Returns the summarization divided with the amount of samples
  23:BatteryDriver.c ****     return sum/1000;
  68              		.loc 1 23 0 is_stmt 1
  69 001a 0448     		ldr	r0, .L5
  70 001c 80FB0530 		smull	r3, r0, r0, r5
  71 0020 ED17     		asrs	r5, r5, #31
  72              	.LVL6:
  73 0022 C5EBA010 		rsb	r0, r5, r0, asr #6
  24:BatteryDriver.c **** }
  74              		.loc 1 24 0
  75 0026 00B2     		sxth	r0, r0
  76 0028 38BD     		pop	{r3, r4, r5, pc}
  77              	.LVL7:
  78              	.L6:
  79 002a 00BF     		.align	2
  80              	.L5:
  81 002c D34D6210 		.word	274877907
  82              		.cfi_endproc
  83              	.LFE64:
  84              		.size	currentHall, .-currentHall
  85              		.section	.text.voltageDividerToPercent,"ax",%progbits
  86              		.align	2
  87              		.global	voltageDividerToPercent
ARM GAS  C:\Users\andre\AppData\Local\Temp\ccBHtHQ3.s 			page 3


  88              		.thumb
  89              		.thumb_func
  90              		.type	voltageDividerToPercent, %function
  91              	voltageDividerToPercent:
  92              	.LFB65:
  25:BatteryDriver.c **** int16_t voltageDividerToPercent()
  26:BatteryDriver.c **** {
  93              		.loc 1 26 0
  94              		.cfi_startproc
  95              		@ args = 0, pretend = 0, frame = 0
  96              		@ frame_needed = 0, uses_anonymous_args = 0
  97 0000 08B5     		push	{r3, lr}
  98              		.cfi_def_cfa_offset 8
  99              		.cfi_offset 3, -8
 100              		.cfi_offset 14, -4
 101              	.LVL8:
  27:BatteryDriver.c ****    //Defines the upper and lower limit
  28:BatteryDriver.c ****    int16_t UpperLimit = 12000;
  29:BatteryDriver.c ****    int16_t LowerLimit = 8200;
  30:BatteryDriver.c ****     
  31:BatteryDriver.c ****    //Convertning the ADC value to milivolts
  32:BatteryDriver.c ****    int16_t result2 = ADC_SAR_2_CountsTo_mVolts(ADC_SAR_2_GetResult16());
 102              		.loc 1 32 0
 103 0002 FFF7FEFF 		bl	ADC_SAR_2_GetResult16
 104              	.LVL9:
 105 0006 FFF7FEFF 		bl	ADC_SAR_2_CountsTo_mVolts
 106              	.LVL10:
  33:BatteryDriver.c **** 
  34:BatteryDriver.c ****    //Returns a scaled value, that shows the charge state of the battery
  35:BatteryDriver.c ****    int16_t scaled = (result2 * 3 - LowerLimit) * 100 / (UpperLimit - LowerLimit);
 107              		.loc 1 35 0
 108 000a 00EB4000 		add	r0, r0, r0, lsl #1
 109              	.LVL11:
 110 000e A0F50050 		sub	r0, r0, #8192
 111 0012 0838     		subs	r0, r0, #8
 112 0014 6423     		movs	r3, #100
 113 0016 03FB00F0 		mul	r0, r3, r0
 114 001a 074B     		ldr	r3, .L11
 115 001c 83FB0023 		smull	r2, r3, r3, r0
 116 0020 C017     		asrs	r0, r0, #31
 117 0022 C0EBA320 		rsb	r0, r0, r3, asr #10
 118 0026 00B2     		sxth	r0, r0
 119              	.LVL12:
  36:BatteryDriver.c **** 
  37:BatteryDriver.c ****    return scaled > 100 ? 100 : (scaled < 0 ? 0 : scaled);
 120              		.loc 1 37 0
 121 0028 6428     		cmp	r0, #100
 122 002a 02DC     		bgt	.L9
 123              		.loc 1 37 0 is_stmt 0 discriminator 1
 124 002c 20EAE070 		bic	r0, r0, r0, asr #31
 125              	.LVL13:
 126 0030 08BD     		pop	{r3, pc}
 127              	.LVL14:
 128              	.L9:
 129              		.loc 1 37 0
 130 0032 6420     		movs	r0, #100
 131              	.LVL15:
ARM GAS  C:\Users\andre\AppData\Local\Temp\ccBHtHQ3.s 			page 4


  38:BatteryDriver.c **** }
 132              		.loc 1 38 0 is_stmt 1
 133 0034 08BD     		pop	{r3, pc}
 134              	.L12:
 135 0036 00BF     		.align	2
 136              	.L11:
 137 0038 353AFC44 		.word	1157380661
 138              		.cfi_endproc
 139              	.LFE65:
 140              		.size	voltageDividerToPercent, .-voltageDividerToPercent
 141              		.section	.text.ISR_UART_rx_handler,"ax",%progbits
 142              		.align	2
 143              		.global	ISR_UART_rx_handler
 144              		.thumb
 145              		.thumb_func
 146              		.type	ISR_UART_rx_handler, %function
 147              	ISR_UART_rx_handler:
 148              	.LFB66:
  39:BatteryDriver.c **** 
  40:BatteryDriver.c **** CY_ISR(ISR_UART_rx_handler)
  41:BatteryDriver.c **** {
 149              		.loc 1 41 0
 150              		.cfi_startproc
 151              		@ args = 0, pretend = 0, frame = 0
 152              		@ frame_needed = 0, uses_anonymous_args = 0
 153 0000 38B5     		push	{r3, r4, r5, lr}
 154              		.cfi_def_cfa_offset 16
 155              		.cfi_offset 3, -16
 156              		.cfi_offset 4, -12
 157              		.cfi_offset 5, -8
 158              		.cfi_offset 14, -4
  42:BatteryDriver.c ****     //ISR routine that handles the receiving data of the UART
  43:BatteryDriver.c ****     uint8_t bytesToRead = UART_1_GetRxBufferSize();
 159              		.loc 1 43 0
 160 0002 FFF7FEFF 		bl	UART_1_GetRxBufferSize
 161              	.LVL16:
 162 0006 0446     		mov	r4, r0
 163              	.LVL17:
  44:BatteryDriver.c ****     while (bytesToRead > 0)
 164              		.loc 1 44 0
 165 0008 09E0     		b	.L14
 166              	.L15:
 167              	.LBB5:
  45:BatteryDriver.c ****     {
  46:BatteryDriver.c ****         uint8_t byteReceived = UART_1_ReadRxData();
 168              		.loc 1 46 0
 169 000a FFF7FEFF 		bl	UART_1_ReadRxData
 170              	.LVL18:
 171 000e 0546     		mov	r5, r0
 172              	.LVL19:
  47:BatteryDriver.c ****         UART_1_WriteTxData(byteReceived); // echo back
 173              		.loc 1 47 0
 174 0010 FFF7FEFF 		bl	UART_1_WriteTxData
 175              	.LVL20:
  48:BatteryDriver.c ****         
  49:BatteryDriver.c ****         handleByteReceived(byteReceived);
 176              		.loc 1 49 0
ARM GAS  C:\Users\andre\AppData\Local\Temp\ccBHtHQ3.s 			page 5


 177 0014 2846     		mov	r0, r5
 178 0016 FFF7FEFF 		bl	handleByteReceived
 179              	.LVL21:
  50:BatteryDriver.c ****         
  51:BatteryDriver.c ****         bytesToRead--;
 180              		.loc 1 51 0
 181 001a 013C     		subs	r4, r4, #1
 182              	.LVL22:
 183 001c E4B2     		uxtb	r4, r4
 184              	.LVL23:
 185              	.L14:
 186              	.LBE5:
  44:BatteryDriver.c ****     {
 187              		.loc 1 44 0
 188 001e 002C     		cmp	r4, #0
 189 0020 F3D1     		bne	.L15
  52:BatteryDriver.c ****     }
  53:BatteryDriver.c **** }
 190              		.loc 1 53 0
 191 0022 38BD     		pop	{r3, r4, r5, pc}
 192              		.cfi_endproc
 193              	.LFE66:
 194              		.size	ISR_UART_rx_handler, .-ISR_UART_rx_handler
 195              		.text
 196              	.Letext0:
 197              		.file 2 "c:\\program files (x86)\\cypress\\psoc creator\\4.4\\psoc creator\\import\\gnu\\arm\\5.4.
 198              		.file 3 "c:\\program files (x86)\\cypress\\psoc creator\\4.4\\psoc creator\\import\\gnu\\arm\\5.4.
 199              		.file 4 "Generated_Source\\PSoC5/ADC_SAR_1.h"
 200              		.file 5 "Generated_Source\\PSoC5/ADC_SAR_2.h"
 201              		.file 6 "Generated_Source\\PSoC5/UART_1.h"
 202              		.file 7 "BatteryDriver.h"
 203              		.file 8 "Generated_Source\\PSoC5/core_cm3.h"