ARM GAS  C:\Users\madse\AppData\Local\Temp\ccb1Z2IL.s 			page 1


   1              		.syntax unified
   2              		.cpu cortex-m3
   3              		.fpu softvfp
   4              		.eabi_attribute 20, 1
   5              		.eabi_attribute 21, 1
   6              		.eabi_attribute 23, 3
   7              		.eabi_attribute 24, 1
   8              		.eabi_attribute 25, 1
   9              		.eabi_attribute 26, 1
  10              		.eabi_attribute 30, 1
  11              		.eabi_attribute 34, 1
  12              		.eabi_attribute 18, 4
  13              		.thumb
  14              		.syntax unified
  15              		.file	"main.c"
  16              		.text
  17              	.Ltext0:
  18              		.cfi_sections	.debug_frame
  19              		.section	.text.goHome,"ax",%progbits
  20              		.align	2
  21              		.global	goHome
  22              		.thumb
  23              		.thumb_func
  24              		.type	goHome, %function
  25              	goHome:
  26              	.LFB64:
  27              		.file 1 "main.c"
   1:main.c        **** /* ========================================
   2:main.c        ****  *
   3:main.c        ****  *          Thomas Degn Larsen
   4:main.c        ****  *
   5:main.c        ****  * ========================================
   6:main.c        **** */
   7:main.c        **** 
   8:main.c        **** #include "project.h"
   9:main.c        **** #include "StepperMotorDriver.h"
  10:main.c        **** #include "SensorDriver.h"
  11:main.c        **** #include"BatteryDriver.h"
  12:main.c        **** #include <stdio.h>
  13:main.c        **** 
  14:main.c        **** void goHome()
  15:main.c        **** {
  28              		.loc 1 15 0
  29              		.cfi_startproc
  30              		@ args = 0, pretend = 0, frame = 0
  31              		@ frame_needed = 0, uses_anonymous_args = 0
  32 0000 08B5     		push	{r3, lr}
  33              		.cfi_def_cfa_offset 8
  34              		.cfi_offset 3, -8
  35              		.cfi_offset 14, -4
  16:main.c        ****     moveElevation(10000); // Go to home
  36              		.loc 1 16 0
  37 0002 42F21070 		movw	r0, #10000
  38 0006 FFF7FEFF 		bl	moveElevation
  39              	.LVL0:
  17:main.c        ****     CyDelay(5000);
  40              		.loc 1 17 0
ARM GAS  C:\Users\madse\AppData\Local\Temp\ccb1Z2IL.s 			page 2


  41 000a 41F28830 		movw	r0, #5000
  42 000e FFF7FEFF 		bl	CyDelay
  43              	.LVL1:
  18:main.c        ****     moveElevation(-640);
  44              		.loc 1 18 0
  45 0012 0D48     		ldr	r0, .L3
  46 0014 FFF7FEFF 		bl	moveElevation
  47              	.LVL2:
  19:main.c        ****     CyDelay(2000);
  48              		.loc 1 19 0
  49 0018 4FF4FA60 		mov	r0, #2000
  50 001c FFF7FEFF 		bl	CyDelay
  51              	.LVL3:
  20:main.c        ****     moveAzimuth(-10000);
  52              		.loc 1 20 0
  53 0020 0A48     		ldr	r0, .L3+4
  54 0022 FFF7FEFF 		bl	moveAzimuth
  55              	.LVL4:
  21:main.c        ****     CyDelay(5000);
  56              		.loc 1 21 0
  57 0026 41F28830 		movw	r0, #5000
  58 002a FFF7FEFF 		bl	CyDelay
  59              	.LVL5:
  22:main.c        ****     moveAzimuth(3100);
  60              		.loc 1 22 0
  61 002e 40F61C40 		movw	r0, #3100
  62 0032 FFF7FEFF 		bl	moveAzimuth
  63              	.LVL6:
  23:main.c        ****     CyDelay(5000);
  64              		.loc 1 23 0
  65 0036 41F28830 		movw	r0, #5000
  66 003a FFF7FEFF 		bl	CyDelay
  67              	.LVL7:
  24:main.c        ****     resetAzimuth();
  68              		.loc 1 24 0
  69 003e FFF7FEFF 		bl	resetAzimuth
  70              	.LVL8:
  25:main.c        ****     resetElevation();
  71              		.loc 1 25 0
  72 0042 FFF7FEFF 		bl	resetElevation
  73              	.LVL9:
  74 0046 08BD     		pop	{r3, pc}
  75              	.L4:
  76              		.align	2
  77              	.L3:
  78 0048 80FDFFFF 		.word	-640
  79 004c F0D8FFFF 		.word	-10000
  80              		.cfi_endproc
  81              	.LFE64:
  82              		.size	goHome, .-goHome
  83              		.section	.text.SPI_RX_HANDLER,"ax",%progbits
  84              		.align	2
  85              		.global	SPI_RX_HANDLER
  86              		.thumb
  87              		.thumb_func
  88              		.type	SPI_RX_HANDLER, %function
  89              	SPI_RX_HANDLER:
ARM GAS  C:\Users\madse\AppData\Local\Temp\ccb1Z2IL.s 			page 3


  90              	.LFB65:
  26:main.c        **** }
  27:main.c        **** 
  28:main.c        **** CY_ISR(SPI_RX_HANDLER)
  29:main.c        **** {
  91              		.loc 1 29 0
  92              		.cfi_startproc
  93              		@ args = 0, pretend = 0, frame = 0
  94              		@ frame_needed = 0, uses_anonymous_args = 0
  95 0000 08B5     		push	{r3, lr}
  96              		.cfi_def_cfa_offset 8
  97              		.cfi_offset 3, -8
  98              		.cfi_offset 14, -4
  30:main.c        ****     if (SPIS_1_GetRxBufferSize() == 0) {
  99              		.loc 1 30 0
 100 0002 FFF7FEFF 		bl	SPIS_1_GetRxBufferSize
 101              	.LVL10:
 102 0006 00B3     		cbz	r0, .L5
  31:main.c        ****         return;
  32:main.c        ****     }
  33:main.c        ****     
  34:main.c        ****     // UART_1_PutString("Modtog SPI interrupt");
  35:main.c        ****     uint8_t recievedData = SPIS_1_ReadRxData();
 103              		.loc 1 35 0
 104 0008 FFF7FEFF 		bl	SPIS_1_ReadRxData
 105              	.LVL11:
  36:main.c        ****     
  37:main.c        ****     // char buff[64];
  38:main.c        ****     // snprintf(buff, sizeof(buff), "Data: %i  \r\n", recievedData);
  39:main.c        ****     // UART_1_PutString(buff);
  40:main.c        ****     
  41:main.c        ****     switch (recievedData)
 106              		.loc 1 41 0
 107 000c 0138     		subs	r0, r0, #1
 108              	.LVL12:
 109 000e 0628     		cmp	r0, #6
 110 0010 19D8     		bhi	.L7
 111 0012 DFE800F0 		tbb	[pc, r0]
 112              	.L9:
 113 0016 04       		.byte	(.L8-.L9)/2
 114 0017 08       		.byte	(.L10-.L9)/2
 115 0018 0D       		.byte	(.L11-.L9)/2
 116 0019 11       		.byte	(.L12-.L9)/2
 117 001a 18       		.byte	(.L7-.L9)/2
 118 001b 18       		.byte	(.L7-.L9)/2
 119 001c 16       		.byte	(.L13-.L9)/2
 120 001d 00       		.p2align 1
 121              	.L8:
  42:main.c        ****     {
  43:main.c        ****         case 1:
  44:main.c        ****             // Move 100 steps left.
  45:main.c        ****             moveAzimuth(200);
 122              		.loc 1 45 0
 123 001e C820     		movs	r0, #200
 124 0020 FFF7FEFF 		bl	moveAzimuth
 125              	.LVL13:
  46:main.c        ****             break;
ARM GAS  C:\Users\madse\AppData\Local\Temp\ccb1Z2IL.s 			page 4


 126              		.loc 1 46 0
 127 0024 0FE0     		b	.L7
 128              	.L10:
  47:main.c        ****         case 2:
  48:main.c        ****             // Move 100 steps right.
  49:main.c        ****             moveAzimuth(-200);
 129              		.loc 1 49 0
 130 0026 6FF0C700 		mvn	r0, #199
 131 002a FFF7FEFF 		bl	moveAzimuth
 132              	.LVL14:
  50:main.c        ****             break;
 133              		.loc 1 50 0
 134 002e 0AE0     		b	.L7
 135              	.L11:
  51:main.c        ****         case 3:
  52:main.c        ****             // Move 100 steps up.
  53:main.c        ****             moveElevation(200);
 136              		.loc 1 53 0
 137 0030 C820     		movs	r0, #200
 138 0032 FFF7FEFF 		bl	moveElevation
 139              	.LVL15:
  54:main.c        ****             break;
 140              		.loc 1 54 0
 141 0036 06E0     		b	.L7
 142              	.L12:
  55:main.c        ****         case 4:
  56:main.c        ****             // Move 100 steps down.
  57:main.c        ****             moveElevation(-200);
 143              		.loc 1 57 0
 144 0038 6FF0C700 		mvn	r0, #199
 145 003c FFF7FEFF 		bl	moveElevation
 146              	.LVL16:
  58:main.c        ****             break;
 147              		.loc 1 58 0
 148 0040 01E0     		b	.L7
 149              	.L13:
  59:main.c        ****         case 7:
  60:main.c        ****             goHome();
 150              		.loc 1 60 0
 151 0042 FFF7FEFF 		bl	goHome
 152              	.LVL17:
 153              	.L7:
  61:main.c        ****             break;
  62:main.c        ****         default:
  63:main.c        ****             // Ignore other commands.
  64:main.c        ****             break;
  65:main.c        ****     }
  66:main.c        ****     
  67:main.c        ****     MOTOR_STEP();    
 154              		.loc 1 67 0
 155 0046 FFF7FEFF 		bl	MOTOR_STEP
 156              	.LVL18:
 157              	.L5:
 158 004a 08BD     		pop	{r3, pc}
 159              		.cfi_endproc
 160              	.LFE65:
 161              		.size	SPI_RX_HANDLER, .-SPI_RX_HANDLER
ARM GAS  C:\Users\madse\AppData\Local\Temp\ccb1Z2IL.s 			page 5


 162              		.section	.text.main,"ax",%progbits
 163              		.align	2
 164              		.global	main
 165              		.thumb
 166              		.thumb_func
 167              		.type	main, %function
 168              	main:
 169              	.LFB66:
  68:main.c        **** }
  69:main.c        **** 
  70:main.c        **** int main(void)
  71:main.c        **** {
 170              		.loc 1 71 0
 171              		.cfi_startproc
 172              		@ args = 0, pretend = 0, frame = 0
 173              		@ frame_needed = 0, uses_anonymous_args = 0
 174 0000 F8B5     		push	{r3, r4, r5, r6, r7, lr}
 175              		.cfi_def_cfa_offset 24
 176              		.cfi_offset 3, -24
 177              		.cfi_offset 4, -20
 178              		.cfi_offset 5, -16
 179              		.cfi_offset 6, -12
 180              		.cfi_offset 7, -8
 181              		.cfi_offset 14, -4
  72:main.c        ****     CyGlobalIntEnable;
 182              		.loc 1 72 0
 183              		.syntax unified
 184              	@ 72 "main.c" 1
 185 0002 62B6     		CPSIE   i
 186              	@ 0 "" 2
  73:main.c        ****     UART_1_Start();
 187              		.loc 1 73 0
 188              		.thumb
 189              		.syntax unified
 190 0004 FFF7FEFF 		bl	UART_1_Start
 191              	.LVL19:
  74:main.c        ****     ADC_SAR_1_Start();
 192              		.loc 1 74 0
 193 0008 FFF7FEFF 		bl	ADC_SAR_1_Start
 194              	.LVL20:
  75:main.c        ****     ADC_SAR_1_StartConvert();
 195              		.loc 1 75 0
 196 000c FFF7FEFF 		bl	ADC_SAR_1_StartConvert
 197              	.LVL21:
  76:main.c        ****     ADC_SAR_2_Start();
 198              		.loc 1 76 0
 199 0010 FFF7FEFF 		bl	ADC_SAR_2_Start
 200              	.LVL22:
  77:main.c        ****     ADC_SAR_2_StartConvert();
 201              		.loc 1 77 0
 202 0014 FFF7FEFF 		bl	ADC_SAR_2_StartConvert
 203              	.LVL23:
  78:main.c        ****     isr_motor_StartEx(MOTOR_STEP);
 204              		.loc 1 78 0
 205 0018 2448     		ldr	r0, .L18
 206 001a FFF7FEFF 		bl	isr_motor_StartEx
 207              	.LVL24:
ARM GAS  C:\Users\madse\AppData\Local\Temp\ccb1Z2IL.s 			page 6


  79:main.c        ****     UART_1_PutString("WAM!\r\n");
 208              		.loc 1 79 0
 209 001e 2448     		ldr	r0, .L18+4
 210 0020 FFF7FEFF 		bl	UART_1_PutString
 211              	.LVL25:
  80:main.c        ****     
  81:main.c        ****     // Start SPI Slave component.
  82:main.c        ****     SPIS_1_Start();
 212              		.loc 1 82 0
 213 0024 FFF7FEFF 		bl	SPIS_1_Start
 214              	.LVL26:
  83:main.c        ****     isr_spis_1_rx_StartEx(SPI_RX_HANDLER);
 215              		.loc 1 83 0
 216 0028 2248     		ldr	r0, .L18+8
 217 002a FFF7FEFF 		bl	isr_spis_1_rx_StartEx
 218              	.LVL27:
  84:main.c        ****     
  85:main.c        ****     goHome();
 219              		.loc 1 85 0
 220 002e FFF7FEFF 		bl	goHome
 221              	.LVL28:
 222              	.L16:
 223              	.LBB2:
  86:main.c        ****     
  87:main.c        **** 
  88:main.c        ****     uint16_t voltage = 0;
  89:main.c        ****     uint16_t azimuth = 0;
  90:main.c        ****     uint16_t elevation = 0;
  91:main.c        ****     for(;;) 
  92:main.c        ****     {
  93:main.c        ****         SPIS_1_WriteTxData(0xAA);
 224              		.loc 1 93 0 discriminator 1
 225 0032 AA20     		movs	r0, #170
 226 0034 FFF7FEFF 		bl	SPIS_1_WriteTxData
 227              	.LVL29:
  94:main.c        ****         
  95:main.c        ****         azimuth = getAzimuth();
 228              		.loc 1 95 0 discriminator 1
 229 0038 FFF7FEFF 		bl	getAzimuth
 230              	.LVL30:
  96:main.c        ****         uint16_t azimuthUnsigned = (uint16_t)azimuth;
  97:main.c        ****         uint8_t azimuthHigh = (azimuthUnsigned >> 8) & 0xFF;
  98:main.c        ****         uint8_t azimuthLow = azimuthUnsigned & 0xFF;
 231              		.loc 1 98 0 discriminator 1
 232 003c C4B2     		uxtb	r4, r0
 233              	.LVL31:
  99:main.c        ****         SPIS_1_WriteTxData(azimuthHigh);
 234              		.loc 1 99 0 discriminator 1
 235 003e C0F30720 		ubfx	r0, r0, #8, #8
 236              	.LVL32:
 237 0042 FFF7FEFF 		bl	SPIS_1_WriteTxData
 238              	.LVL33:
 100:main.c        ****         SPIS_1_WriteTxData(azimuthLow);
 239              		.loc 1 100 0 discriminator 1
 240 0046 2046     		mov	r0, r4
 241 0048 FFF7FEFF 		bl	SPIS_1_WriteTxData
 242              	.LVL34:
ARM GAS  C:\Users\madse\AppData\Local\Temp\ccb1Z2IL.s 			page 7


 101:main.c        ****         
 102:main.c        ****         elevation = getElevation();
 243              		.loc 1 102 0 discriminator 1
 244 004c FFF7FEFF 		bl	getElevation
 245              	.LVL35:
 103:main.c        ****         uint16_t elevationUnsigned = (uint16_t)elevation;
 104:main.c        ****         uint8_t elevationHigh = (elevationUnsigned >> 8) & 0xFF;
 105:main.c        ****         uint8_t elevationLow = elevationUnsigned & 0xFF;
 246              		.loc 1 105 0 discriminator 1
 247 0050 C4B2     		uxtb	r4, r0
 248              	.LVL36:
 106:main.c        ****         SPIS_1_WriteTxData(elevationHigh);
 249              		.loc 1 106 0 discriminator 1
 250 0052 C0F30720 		ubfx	r0, r0, #8, #8
 251              	.LVL37:
 252 0056 FFF7FEFF 		bl	SPIS_1_WriteTxData
 253              	.LVL38:
 107:main.c        ****         SPIS_1_WriteTxData(elevationLow);
 254              		.loc 1 107 0 discriminator 1
 255 005a 2046     		mov	r0, r4
 256 005c FFF7FEFF 		bl	SPIS_1_WriteTxData
 257              	.LVL39:
 108:main.c        ****         
 109:main.c        ****         voltage = voltageDividerToPercent();
 258              		.loc 1 109 0 discriminator 1
 259 0060 FFF7FEFF 		bl	voltageDividerToPercent
 260              	.LVL40:
 110:main.c        ****         uint16_t voltageUnsigned = (uint16_t)voltage;
 111:main.c        ****         uint8_t voltageHigh = (voltageUnsigned >> 8) & 0xFF;
 112:main.c        ****         uint8_t voltageLow = voltageUnsigned & 0xFF;
 261              		.loc 1 112 0 discriminator 1
 262 0064 C4B2     		uxtb	r4, r0
 263              	.LVL41:
 113:main.c        **** 
 114:main.c        ****         SPIS_1_WriteTxData(voltageHigh);
 264              		.loc 1 114 0 discriminator 1
 265 0066 C0F30720 		ubfx	r0, r0, #8, #8
 266              	.LVL42:
 267 006a FFF7FEFF 		bl	SPIS_1_WriteTxData
 268              	.LVL43:
 115:main.c        ****         SPIS_1_WriteTxData(voltageLow);
 269              		.loc 1 115 0 discriminator 1
 270 006e 2046     		mov	r0, r4
 271 0070 FFF7FEFF 		bl	SPIS_1_WriteTxData
 272              	.LVL44:
 116:main.c        ****         
 117:main.c        ****         uint8_t left = sunLeft() ? 1 : 0;
 273              		.loc 1 117 0 discriminator 1
 274 0074 FFF7FEFF 		bl	sunLeft
 275              	.LVL45:
 276 0078 0746     		mov	r7, r0
 277              	.LVL46:
 118:main.c        ****         uint8_t right = sunRight() ? 1 : 0;
 278              		.loc 1 118 0 discriminator 1
 279 007a FFF7FEFF 		bl	sunRight
 280              	.LVL47:
 281 007e 0646     		mov	r6, r0
ARM GAS  C:\Users\madse\AppData\Local\Temp\ccb1Z2IL.s 			page 8


 282              	.LVL48:
 119:main.c        ****         uint8_t up = sunUp() ? 1 : 0;
 283              		.loc 1 119 0 discriminator 1
 284 0080 FFF7FEFF 		bl	sunUp
 285              	.LVL49:
 286 0084 0546     		mov	r5, r0
 287              	.LVL50:
 120:main.c        ****         uint8_t down = sunDown() ? 1 : 0;
 288              		.loc 1 120 0 discriminator 1
 289 0086 FFF7FEFF 		bl	sunDown
 290              	.LVL51:
 291 008a 0446     		mov	r4, r0
 292              	.LVL52:
 121:main.c        ****         SPIS_1_WriteTxData(left);
 293              		.loc 1 121 0 discriminator 1
 294 008c 3846     		mov	r0, r7
 295 008e FFF7FEFF 		bl	SPIS_1_WriteTxData
 296              	.LVL53:
 122:main.c        ****         SPIS_1_WriteTxData(right);
 297              		.loc 1 122 0 discriminator 1
 298 0092 3046     		mov	r0, r6
 299 0094 FFF7FEFF 		bl	SPIS_1_WriteTxData
 300              	.LVL54:
 123:main.c        ****         SPIS_1_WriteTxData(up);
 301              		.loc 1 123 0 discriminator 1
 302 0098 2846     		mov	r0, r5
 303 009a FFF7FEFF 		bl	SPIS_1_WriteTxData
 304              	.LVL55:
 124:main.c        ****         SPIS_1_WriteTxData(down);
 305              		.loc 1 124 0 discriminator 1
 306 009e 2046     		mov	r0, r4
 307 00a0 FFF7FEFF 		bl	SPIS_1_WriteTxData
 308              	.LVL56:
 125:main.c        ****         SPIS_1_WriteTxData(0xBB);
 309              		.loc 1 125 0 discriminator 1
 310 00a4 BB20     		movs	r0, #187
 311 00a6 FFF7FEFF 		bl	SPIS_1_WriteTxData
 312              	.LVL57:
 313 00aa C2E7     		b	.L16
 314              	.L19:
 315              		.align	2
 316              	.L18:
 317 00ac 00000000 		.word	MOTOR_STEP
 318 00b0 00000000 		.word	.LC0
 319 00b4 00000000 		.word	SPI_RX_HANDLER
 320              	.LBE2:
 321              		.cfi_endproc
 322              	.LFE66:
 323              		.size	main, .-main
 324              		.section	.rodata.str1.4,"aMS",%progbits,1
 325              		.align	2
 326              	.LC0:
 327 0000 57414D21 		.ascii	"WAM!\015\012\000"
 327      0D0A00
 328              		.text
 329              	.Letext0:
 330              		.file 2 "c:\\program files (x86)\\cypress\\psoc creator\\4.4\\psoc creator\\import\\gnu\\arm\\5.4.
ARM GAS  C:\Users\madse\AppData\Local\Temp\ccb1Z2IL.s 			page 9


 331              		.file 3 "c:\\program files (x86)\\cypress\\psoc creator\\4.4\\psoc creator\\import\\gnu\\arm\\5.4.
 332              		.file 4 "StepperMotorDriver.h"
 333              		.file 5 "Generated_Source\\PSoC5/CyLib.h"
 334              		.file 6 "Generated_Source\\PSoC5/SPIS_1.h"
 335              		.file 7 "BatteryDriver.h"
 336              		.file 8 "SensorDriver.h"
 337              		.file 9 "Generated_Source\\PSoC5/UART_1.h"
 338              		.file 10 "Generated_Source\\PSoC5/ADC_SAR_1.h"
 339              		.file 11 "Generated_Source\\PSoC5/ADC_SAR_2.h"
 340              		.file 12 "Generated_Source\\PSoC5/isr_motor.h"
 341              		.file 13 "Generated_Source\\PSoC5/isr_spis_1_rx.h"
 342              		.file 14 "Generated_Source\\PSoC5/core_cm3.h"