ARM GAS  C:\Users\madse\AppData\Local\Temp\cc21DXt8.s 			page 1


   1              		.syntax unified
   2              		.cpu cortex-m3
   3              		.fpu softvfp
   4              		.eabi_attribute 20, 1
   5              		.eabi_attribute 21, 1
   6              		.eabi_attribute 23, 3
   7              		.eabi_attribute 24, 1
   8              		.eabi_attribute 25, 1
   9              		.eabi_attribute 26, 1
  10              		.eabi_attribute 30, 1
  11              		.eabi_attribute 34, 1
  12              		.eabi_attribute 18, 4
  13              		.thumb
  14              		.syntax unified
  15              		.file	"StepperMotorDriver.c"
  16              		.text
  17              	.Ltext0:
  18              		.cfi_sections	.debug_frame
  19              		.section	.text.moveAzimuth,"ax",%progbits
  20              		.align	2
  21              		.global	moveAzimuth
  22              		.thumb
  23              		.thumb_func
  24              		.type	moveAzimuth, %function
  25              	moveAzimuth:
  26              	.LFB64:
  27              		.file 1 "StepperMotorDriver.c"
   1:StepperMotorDriver.c **** /* ========================================
   2:StepperMotorDriver.c ****  *
   3:StepperMotorDriver.c ****  *          Thomas Degn Larsen
   4:StepperMotorDriver.c ****  *
   5:StepperMotorDriver.c ****  * ========================================
   6:StepperMotorDriver.c **** */
   7:StepperMotorDriver.c **** 
   8:StepperMotorDriver.c **** #include "project.h"
   9:StepperMotorDriver.c **** #include "StepperMotorDriver.h"
  10:StepperMotorDriver.c **** #include <stdio.h>
  11:StepperMotorDriver.c **** #include <math.h>
  12:StepperMotorDriver.c **** #define STEPS 8                         // number of steps before repeat (half step = 400 steps pr 
  13:StepperMotorDriver.c **** 
  14:StepperMotorDriver.c **** /******************
  15:StepperMotorDriver.c **** **   Variables   **
  16:StepperMotorDriver.c **** ******************/
  17:StepperMotorDriver.c **** static int stepSequence[STEPS][4] = {   // step sequence for motors
  18:StepperMotorDriver.c ****     {1, 0, 0, 1},                       // step 1
  19:StepperMotorDriver.c ****     {0, 0, 0, 1},                       // step 2
  20:StepperMotorDriver.c ****     {0, 0, 1, 1},                       // step 3
  21:StepperMotorDriver.c ****     {0, 0, 1, 0},                       // step 4
  22:StepperMotorDriver.c ****     {0, 1, 1, 0},                       // step 5
  23:StepperMotorDriver.c ****     {0, 1, 0, 0},                       // step 6
  24:StepperMotorDriver.c ****     {1, 1, 0, 0},                       // step 7
  25:StepperMotorDriver.c ****     {1, 0, 0, 0}                        // step 8
  26:StepperMotorDriver.c **** };
  27:StepperMotorDriver.c ****     
  28:StepperMotorDriver.c **** static int off[4] = {0, 0, 0, 0};       // step used to turn of motors
  29:StepperMotorDriver.c **** static long azimuthSteps = 8000000;     // counting steps for steppermotor moving solar panel horit
  30:StepperMotorDriver.c **** static long elevationSteps = 8000000;   // counting steps for steppermotor moving solar panel verti
ARM GAS  C:\Users\madse\AppData\Local\Temp\cc21DXt8.s 			page 2


  31:StepperMotorDriver.c **** static int aStep = 0;                   // number of steps to be taken with azimuth motor
  32:StepperMotorDriver.c **** static int eStep = 0;                   // number of steps to be taken with elevation motor
  33:StepperMotorDriver.c **** static int16_t currentAsteps = 0;
  34:StepperMotorDriver.c **** static int16_t currentEsteps = 0;
  35:StepperMotorDriver.c **** 
  36:StepperMotorDriver.c **** 
  37:StepperMotorDriver.c **** /******************
  38:StepperMotorDriver.c **** **   Functions   **
  39:StepperMotorDriver.c **** ******************/
  40:StepperMotorDriver.c **** void moveAzimuth(int steps)
  41:StepperMotorDriver.c **** {   // function to set steps to be takben by azimuth motor
  28              		.loc 1 41 0
  29              		.cfi_startproc
  30              		@ args = 0, pretend = 0, frame = 0
  31              		@ frame_needed = 0, uses_anonymous_args = 0
  32              		@ link register save eliminated.
  33              	.LVL0:
  42:StepperMotorDriver.c ****     aStep = steps;
  34              		.loc 1 42 0
  35 0000 014B     		ldr	r3, .L2
  36 0002 1860     		str	r0, [r3]
  37 0004 7047     		bx	lr
  38              	.L3:
  39 0006 00BF     		.align	2
  40              	.L2:
  41 0008 00000000 		.word	.LANCHOR0
  42              		.cfi_endproc
  43              	.LFE64:
  44              		.size	moveAzimuth, .-moveAzimuth
  45              		.global	__aeabi_i2f
  46              		.global	__aeabi_fmul
  47              		.global	__aeabi_f2d
  48              		.global	__aeabi_d2iz
  49              		.section	.text.getAzimuth,"ax",%progbits
  50              		.align	2
  51              		.global	getAzimuth
  52              		.thumb
  53              		.thumb_func
  54              		.type	getAzimuth, %function
  55              	getAzimuth:
  56              	.LFB65:
  43:StepperMotorDriver.c **** }
  44:StepperMotorDriver.c **** 
  45:StepperMotorDriver.c **** int16_t getAzimuth()
  46:StepperMotorDriver.c **** {
  57              		.loc 1 46 0
  58              		.cfi_startproc
  59              		@ args = 0, pretend = 0, frame = 64
  60              		@ frame_needed = 0, uses_anonymous_args = 0
  61 0000 30B5     		push	{r4, r5, lr}
  62              		.cfi_def_cfa_offset 12
  63              		.cfi_offset 4, -12
  64              		.cfi_offset 5, -8
  65              		.cfi_offset 14, -4
  66 0002 91B0     		sub	sp, sp, #68
  67              		.cfi_def_cfa_offset 80
  68              	.LVL1:
ARM GAS  C:\Users\madse\AppData\Local\Temp\cc21DXt8.s 			page 3


  47:StepperMotorDriver.c ****     const float degress_per_step = 0.9 / 18; // 1:18 gear ratio
  48:StepperMotorDriver.c ****     
  49:StepperMotorDriver.c ****     float total_degrees = currentAsteps * degress_per_step;
  69              		.loc 1 49 0
  70 0004 0D4B     		ldr	r3, .L6
  71 0006 B3F90450 		ldrsh	r5, [r3, #4]
  72 000a 2846     		mov	r0, r5
  73 000c FFF7FEFF 		bl	__aeabi_i2f
  74              	.LVL2:
  75 0010 0B49     		ldr	r1, .L6+4
  76 0012 FFF7FEFF 		bl	__aeabi_fmul
  77              	.LVL3:
  50:StepperMotorDriver.c ****     int16_t rounded = (int16_t)round(total_degrees);
  78              		.loc 1 50 0
  79 0016 FFF7FEFF 		bl	__aeabi_f2d
  80              	.LVL4:
  81 001a FFF7FEFF 		bl	round
  82              	.LVL5:
  83 001e FFF7FEFF 		bl	__aeabi_d2iz
  84              	.LVL6:
  85 0022 04B2     		sxth	r4, r0
  86              	.LVL7:
  51:StepperMotorDriver.c ****     
  52:StepperMotorDriver.c ****     char buff[64];
  53:StepperMotorDriver.c ****     sprintf(buff, "Asteps: %i - Rounded: %i \r\n", currentAsteps, rounded);
  87              		.loc 1 53 0
  88 0024 2346     		mov	r3, r4
  89 0026 2A46     		mov	r2, r5
  90 0028 0649     		ldr	r1, .L6+8
  91 002a 6846     		mov	r0, sp
  92 002c FFF7FEFF 		bl	sprintf
  93              	.LVL8:
  54:StepperMotorDriver.c ****     UART_1_PutString(buff);
  94              		.loc 1 54 0
  95 0030 6846     		mov	r0, sp
  96 0032 FFF7FEFF 		bl	UART_1_PutString
  97              	.LVL9:
  55:StepperMotorDriver.c ****     
  56:StepperMotorDriver.c ****     return rounded;
  57:StepperMotorDriver.c **** }
  98              		.loc 1 57 0
  99 0036 2046     		mov	r0, r4
 100 0038 11B0     		add	sp, sp, #68
 101              		.cfi_def_cfa_offset 12
 102              		@ sp needed
 103 003a 30BD     		pop	{r4, r5, pc}
 104              	.LVL10:
 105              	.L7:
 106              		.align	2
 107              	.L6:
 108 003c 00000000 		.word	.LANCHOR0
 109 0040 CDCC4C3D 		.word	1028443341
 110 0044 00000000 		.word	.LC0
 111              		.cfi_endproc
 112              	.LFE65:
 113              		.size	getAzimuth, .-getAzimuth
 114              		.section	.text.getElevation,"ax",%progbits
ARM GAS  C:\Users\madse\AppData\Local\Temp\cc21DXt8.s 			page 4


 115              		.align	2
 116              		.global	getElevation
 117              		.thumb
 118              		.thumb_func
 119              		.type	getElevation, %function
 120              	getElevation:
 121              	.LFB66:
  58:StepperMotorDriver.c **** 
  59:StepperMotorDriver.c **** int16_t getElevation()
  60:StepperMotorDriver.c **** {
 122              		.loc 1 60 0
 123              		.cfi_startproc
 124              		@ args = 0, pretend = 0, frame = 64
 125              		@ frame_needed = 0, uses_anonymous_args = 0
 126 0000 30B5     		push	{r4, r5, lr}
 127              		.cfi_def_cfa_offset 12
 128              		.cfi_offset 4, -12
 129              		.cfi_offset 5, -8
 130              		.cfi_offset 14, -4
 131 0002 91B0     		sub	sp, sp, #68
 132              		.cfi_def_cfa_offset 80
 133              	.LVL11:
  61:StepperMotorDriver.c ****     const float degress_per_step = 0.9 / 20; // 1:20 gear ratio
  62:StepperMotorDriver.c ****     
  63:StepperMotorDriver.c ****     float total_degrees = currentEsteps * degress_per_step;
 134              		.loc 1 63 0
 135 0004 0D4D     		ldr	r5, .L10
 136 0006 B5F90600 		ldrsh	r0, [r5, #6]
 137 000a FFF7FEFF 		bl	__aeabi_i2f
 138              	.LVL12:
 139 000e 0C49     		ldr	r1, .L10+4
 140 0010 FFF7FEFF 		bl	__aeabi_fmul
 141              	.LVL13:
  64:StepperMotorDriver.c ****     int16_t rounded = (int16_t)round(total_degrees);
 142              		.loc 1 64 0
 143 0014 FFF7FEFF 		bl	__aeabi_f2d
 144              	.LVL14:
 145 0018 FFF7FEFF 		bl	round
 146              	.LVL15:
 147 001c FFF7FEFF 		bl	__aeabi_d2iz
 148              	.LVL16:
 149 0020 04B2     		sxth	r4, r0
 150              	.LVL17:
  65:StepperMotorDriver.c ****     
  66:StepperMotorDriver.c ****     char buff[64];
  67:StepperMotorDriver.c ****     sprintf(buff, "Esteps: %i - Rounded: %i \r\n", currentAsteps, rounded);
 151              		.loc 1 67 0
 152 0022 2346     		mov	r3, r4
 153 0024 B5F90420 		ldrsh	r2, [r5, #4]
 154 0028 0649     		ldr	r1, .L10+8
 155 002a 6846     		mov	r0, sp
 156 002c FFF7FEFF 		bl	sprintf
 157              	.LVL18:
  68:StepperMotorDriver.c ****     UART_1_PutString(buff);
 158              		.loc 1 68 0
 159 0030 6846     		mov	r0, sp
 160 0032 FFF7FEFF 		bl	UART_1_PutString
ARM GAS  C:\Users\madse\AppData\Local\Temp\cc21DXt8.s 			page 5


 161              	.LVL19:
  69:StepperMotorDriver.c ****     
  70:StepperMotorDriver.c ****     return rounded;
  71:StepperMotorDriver.c **** }
 162              		.loc 1 71 0
 163 0036 2046     		mov	r0, r4
 164 0038 11B0     		add	sp, sp, #68
 165              		.cfi_def_cfa_offset 12
 166              		@ sp needed
 167 003a 30BD     		pop	{r4, r5, pc}
 168              	.LVL20:
 169              	.L11:
 170              		.align	2
 171              	.L10:
 172 003c 00000000 		.word	.LANCHOR0
 173 0040 EC51383D 		.word	1027101164
 174 0044 1C000000 		.word	.LC1
 175              		.cfi_endproc
 176              	.LFE66:
 177              		.size	getElevation, .-getElevation
 178              		.section	.text.resetAzimuth,"ax",%progbits
 179              		.align	2
 180              		.global	resetAzimuth
 181              		.thumb
 182              		.thumb_func
 183              		.type	resetAzimuth, %function
 184              	resetAzimuth:
 185              	.LFB67:
  72:StepperMotorDriver.c **** 
  73:StepperMotorDriver.c **** void resetAzimuth()
  74:StepperMotorDriver.c **** {
 186              		.loc 1 74 0
 187              		.cfi_startproc
 188              		@ args = 0, pretend = 0, frame = 0
 189              		@ frame_needed = 0, uses_anonymous_args = 0
 190              		@ link register save eliminated.
  75:StepperMotorDriver.c ****     currentAsteps = 0;
 191              		.loc 1 75 0
 192 0000 0022     		movs	r2, #0
 193 0002 014B     		ldr	r3, .L13
 194 0004 9A80     		strh	r2, [r3, #4]	@ movhi
 195 0006 7047     		bx	lr
 196              	.L14:
 197              		.align	2
 198              	.L13:
 199 0008 00000000 		.word	.LANCHOR0
 200              		.cfi_endproc
 201              	.LFE67:
 202              		.size	resetAzimuth, .-resetAzimuth
 203              		.section	.text.resetElevation,"ax",%progbits
 204              		.align	2
 205              		.global	resetElevation
 206              		.thumb
 207              		.thumb_func
 208              		.type	resetElevation, %function
 209              	resetElevation:
 210              	.LFB68:
ARM GAS  C:\Users\madse\AppData\Local\Temp\cc21DXt8.s 			page 6


  76:StepperMotorDriver.c **** }
  77:StepperMotorDriver.c **** void resetElevation()
  78:StepperMotorDriver.c **** {
 211              		.loc 1 78 0
 212              		.cfi_startproc
 213              		@ args = 0, pretend = 0, frame = 0
 214              		@ frame_needed = 0, uses_anonymous_args = 0
 215              		@ link register save eliminated.
  79:StepperMotorDriver.c ****     currentEsteps = 0;
 216              		.loc 1 79 0
 217 0000 0022     		movs	r2, #0
 218 0002 014B     		ldr	r3, .L16
 219 0004 DA80     		strh	r2, [r3, #6]	@ movhi
 220 0006 7047     		bx	lr
 221              	.L17:
 222              		.align	2
 223              	.L16:
 224 0008 00000000 		.word	.LANCHOR0
 225              		.cfi_endproc
 226              	.LFE68:
 227              		.size	resetElevation, .-resetElevation
 228              		.section	.text.azimuthStep,"ax",%progbits
 229              		.align	2
 230              		.global	azimuthStep
 231              		.thumb
 232              		.thumb_func
 233              		.type	azimuthStep, %function
 234              	azimuthStep:
 235              	.LFB70:
  80:StepperMotorDriver.c **** }
  81:StepperMotorDriver.c **** 
  82:StepperMotorDriver.c **** void azimuth()
  83:StepperMotorDriver.c **** {   // function to calculate next azimutgh step based and call azimuthStep()
  84:StepperMotorDriver.c ****     if (Azimuth_Pin_1_Read() == 0 && Azimuth_Pin_2_Read() == 0 && Azimuth_Pin_3_Read() == 0 && Azim
  85:StepperMotorDriver.c ****     {   // if the motor is off turn it on, on the same step as last time
  86:StepperMotorDriver.c ****         azimuthStep(stepSequence[azimuthSteps % STEPS]);
  87:StepperMotorDriver.c ****         return;
  88:StepperMotorDriver.c ****     }
  89:StepperMotorDriver.c ****     if (aStep > 0)
  90:StepperMotorDriver.c ****     {   // turning left (positiv steps)
  91:StepperMotorDriver.c ****         if (!Limit_Left_Read())
  92:StepperMotorDriver.c ****         {   // if left limit is reached, don't move
  93:StepperMotorDriver.c ****             aStep = 0;
  94:StepperMotorDriver.c ****             return;
  95:StepperMotorDriver.c ****         }
  96:StepperMotorDriver.c ****         // set azimuth motor pins to next step and decrease steps to be taken
  97:StepperMotorDriver.c ****         azimuthStep(stepSequence[++azimuthSteps % STEPS]);
  98:StepperMotorDriver.c ****         aStep = aStep - 1;
  99:StepperMotorDriver.c ****         currentAsteps = currentAsteps + 1;
 100:StepperMotorDriver.c ****         return;
 101:StepperMotorDriver.c ****     }
 102:StepperMotorDriver.c ****     else if (aStep < 0)
 103:StepperMotorDriver.c ****     {    // turning right (negativ steps)
 104:StepperMotorDriver.c ****         if (!Limit_Right_Read())
 105:StepperMotorDriver.c ****         {   // if right limit is reached, don't move
 106:StepperMotorDriver.c ****             aStep = 0;
 107:StepperMotorDriver.c ****             return;
ARM GAS  C:\Users\madse\AppData\Local\Temp\cc21DXt8.s 			page 7


 108:StepperMotorDriver.c ****         }
 109:StepperMotorDriver.c ****         // set azimuth motor pins to next step and decrease steps to be taken
 110:StepperMotorDriver.c ****         azimuthStep(stepSequence[--azimuthSteps % STEPS]);
 111:StepperMotorDriver.c ****         aStep = aStep + 1;
 112:StepperMotorDriver.c ****         currentAsteps = currentAsteps - 1;
 113:StepperMotorDriver.c ****         return;
 114:StepperMotorDriver.c ****     }
 115:StepperMotorDriver.c ****     return;
 116:StepperMotorDriver.c **** }
 117:StepperMotorDriver.c **** 
 118:StepperMotorDriver.c **** void azimuthStep(int sequence[4])
 119:StepperMotorDriver.c **** {   // function to write sequence to azimuth motor pins
 236              		.loc 1 119 0
 237              		.cfi_startproc
 238              		@ args = 0, pretend = 0, frame = 0
 239              		@ frame_needed = 0, uses_anonymous_args = 0
 240              	.LVL21:
 241 0000 10B5     		push	{r4, lr}
 242              		.cfi_def_cfa_offset 8
 243              		.cfi_offset 4, -8
 244              		.cfi_offset 14, -4
 245 0002 0446     		mov	r4, r0
 120:StepperMotorDriver.c ****     Azimuth_Pin_1_Write(sequence[0]);
 246              		.loc 1 120 0
 247 0004 0078     		ldrb	r0, [r0]	@ zero_extendqisi2
 248              	.LVL22:
 249 0006 FFF7FEFF 		bl	Azimuth_Pin_1_Write
 250              	.LVL23:
 121:StepperMotorDriver.c ****     Azimuth_Pin_2_Write(sequence[1]);
 251              		.loc 1 121 0
 252 000a 2079     		ldrb	r0, [r4, #4]	@ zero_extendqisi2
 253 000c FFF7FEFF 		bl	Azimuth_Pin_2_Write
 254              	.LVL24:
 122:StepperMotorDriver.c ****     Azimuth_Pin_3_Write(sequence[2]);
 255              		.loc 1 122 0
 256 0010 207A     		ldrb	r0, [r4, #8]	@ zero_extendqisi2
 257 0012 FFF7FEFF 		bl	Azimuth_Pin_3_Write
 258              	.LVL25:
 123:StepperMotorDriver.c ****     Azimuth_Pin_4_Write(sequence[3]);
 259              		.loc 1 123 0
 260 0016 207B     		ldrb	r0, [r4, #12]	@ zero_extendqisi2
 261 0018 FFF7FEFF 		bl	Azimuth_Pin_4_Write
 262              	.LVL26:
 263 001c 10BD     		pop	{r4, pc}
 264              		.cfi_endproc
 265              	.LFE70:
 266              		.size	azimuthStep, .-azimuthStep
 267 001e 00BF     		.section	.text.azimuth,"ax",%progbits
 268              		.align	2
 269              		.global	azimuth
 270              		.thumb
 271              		.thumb_func
 272              		.type	azimuth, %function
 273              	azimuth:
 274              	.LFB69:
  83:StepperMotorDriver.c ****     if (Azimuth_Pin_1_Read() == 0 && Azimuth_Pin_2_Read() == 0 && Azimuth_Pin_3_Read() == 0 && Azim
 275              		.loc 1 83 0
ARM GAS  C:\Users\madse\AppData\Local\Temp\cc21DXt8.s 			page 8


 276              		.cfi_startproc
 277              		@ args = 0, pretend = 0, frame = 0
 278              		@ frame_needed = 0, uses_anonymous_args = 0
 279 0000 08B5     		push	{r3, lr}
 280              		.cfi_def_cfa_offset 8
 281              		.cfi_offset 3, -8
 282              		.cfi_offset 14, -4
  84:StepperMotorDriver.c ****     {   // if the motor is off turn it on, on the same step as last time
 283              		.loc 1 84 0
 284 0002 FFF7FEFF 		bl	Azimuth_Pin_1_Read
 285              	.LVL27:
 286 0006 B8B9     		cbnz	r0, .L21
  84:StepperMotorDriver.c ****     {   // if the motor is off turn it on, on the same step as last time
 287              		.loc 1 84 0 is_stmt 0 discriminator 1
 288 0008 FFF7FEFF 		bl	Azimuth_Pin_2_Read
 289              	.LVL28:
 290 000c A0B9     		cbnz	r0, .L21
  84:StepperMotorDriver.c ****     {   // if the motor is off turn it on, on the same step as last time
 291              		.loc 1 84 0 discriminator 2
 292 000e FFF7FEFF 		bl	Azimuth_Pin_3_Read
 293              	.LVL29:
 294 0012 88B9     		cbnz	r0, .L21
  84:StepperMotorDriver.c ****     {   // if the motor is off turn it on, on the same step as last time
 295              		.loc 1 84 0 discriminator 3
 296 0014 FFF7FEFF 		bl	Azimuth_Pin_4_Read
 297              	.LVL30:
 298 0018 70B9     		cbnz	r0, .L21
  86:StepperMotorDriver.c ****         return;
 299              		.loc 1 86 0 is_stmt 1
 300 001a 294B     		ldr	r3, .L30
 301 001c 1B68     		ldr	r3, [r3]
 302 001e 294A     		ldr	r2, .L30+4
 303 0020 1340     		ands	r3, r3, r2
 304 0022 03D5     		bpl	.L22
 305 0024 013B     		subs	r3, r3, #1
 306 0026 63F00703 		orn	r3, r3, #7
 307 002a 0133     		adds	r3, r3, #1
 308              	.L22:
 309 002c 2648     		ldr	r0, .L30+8
 310 002e 00EB0310 		add	r0, r0, r3, lsl #4
 311 0032 FFF7FEFF 		bl	azimuthStep
 312              	.LVL31:
  87:StepperMotorDriver.c ****     }
 313              		.loc 1 87 0
 314 0036 08BD     		pop	{r3, pc}
 315              	.L21:
  89:StepperMotorDriver.c ****     {   // turning left (positiv steps)
 316              		.loc 1 89 0
 317 0038 244B     		ldr	r3, .L30+12
 318 003a 1B68     		ldr	r3, [r3]
 319 003c 002B     		cmp	r3, #0
 320 003e 1EDD     		ble	.L24
  91:StepperMotorDriver.c ****         {   // if left limit is reached, don't move
 321              		.loc 1 91 0
 322 0040 FFF7FEFF 		bl	Limit_Left_Read
 323              	.LVL32:
 324 0044 18B9     		cbnz	r0, .L25
ARM GAS  C:\Users\madse\AppData\Local\Temp\cc21DXt8.s 			page 9


  93:StepperMotorDriver.c ****             return;
 325              		.loc 1 93 0
 326 0046 0022     		movs	r2, #0
 327 0048 204B     		ldr	r3, .L30+12
 328 004a 1A60     		str	r2, [r3]
  94:StepperMotorDriver.c ****         }
 329              		.loc 1 94 0
 330 004c 08BD     		pop	{r3, pc}
 331              	.L25:
  97:StepperMotorDriver.c ****         aStep = aStep - 1;
 332              		.loc 1 97 0
 333 004e 1C4A     		ldr	r2, .L30
 334 0050 1368     		ldr	r3, [r2]
 335 0052 0133     		adds	r3, r3, #1
 336 0054 1360     		str	r3, [r2]
 337 0056 1B48     		ldr	r0, .L30+4
 338 0058 0340     		ands	r3, r3, r0
 339 005a 03D5     		bpl	.L26
 340 005c 013B     		subs	r3, r3, #1
 341 005e 63F00703 		orn	r3, r3, #7
 342 0062 0133     		adds	r3, r3, #1
 343              	.L26:
 344 0064 1848     		ldr	r0, .L30+8
 345 0066 00EB0310 		add	r0, r0, r3, lsl #4
 346 006a FFF7FEFF 		bl	azimuthStep
 347              	.LVL33:
  98:StepperMotorDriver.c ****         currentAsteps = currentAsteps + 1;
 348              		.loc 1 98 0
 349 006e 174B     		ldr	r3, .L30+12
 350 0070 1A68     		ldr	r2, [r3]
 351 0072 013A     		subs	r2, r2, #1
 352 0074 1A60     		str	r2, [r3]
  99:StepperMotorDriver.c ****         return;
 353              		.loc 1 99 0
 354 0076 9A88     		ldrh	r2, [r3, #4]
 355 0078 0132     		adds	r2, r2, #1
 356 007a 9A80     		strh	r2, [r3, #4]	@ movhi
 100:StepperMotorDriver.c ****     }
 357              		.loc 1 100 0
 358 007c 08BD     		pop	{r3, pc}
 359              	.L24:
 102:StepperMotorDriver.c ****     {    // turning right (negativ steps)
 360              		.loc 1 102 0
 361 007e 002B     		cmp	r3, #0
 362 0080 1DDA     		bge	.L20
 104:StepperMotorDriver.c ****         {   // if right limit is reached, don't move
 363              		.loc 1 104 0
 364 0082 FFF7FEFF 		bl	Limit_Right_Read
 365              	.LVL34:
 366 0086 18B9     		cbnz	r0, .L27
 106:StepperMotorDriver.c ****             return;
 367              		.loc 1 106 0
 368 0088 0022     		movs	r2, #0
 369 008a 104B     		ldr	r3, .L30+12
 370 008c 1A60     		str	r2, [r3]
 107:StepperMotorDriver.c ****         }
 371              		.loc 1 107 0
ARM GAS  C:\Users\madse\AppData\Local\Temp\cc21DXt8.s 			page 10


 372 008e 08BD     		pop	{r3, pc}
 373              	.L27:
 110:StepperMotorDriver.c ****         aStep = aStep + 1;
 374              		.loc 1 110 0
 375 0090 0B4A     		ldr	r2, .L30
 376 0092 1368     		ldr	r3, [r2]
 377 0094 013B     		subs	r3, r3, #1
 378 0096 1360     		str	r3, [r2]
 379 0098 0A48     		ldr	r0, .L30+4
 380 009a 0340     		ands	r3, r3, r0
 381 009c 03D5     		bpl	.L28
 382 009e 013B     		subs	r3, r3, #1
 383 00a0 63F00703 		orn	r3, r3, #7
 384 00a4 0133     		adds	r3, r3, #1
 385              	.L28:
 386 00a6 0848     		ldr	r0, .L30+8
 387 00a8 00EB0310 		add	r0, r0, r3, lsl #4
 388 00ac FFF7FEFF 		bl	azimuthStep
 389              	.LVL35:
 111:StepperMotorDriver.c ****         currentAsteps = currentAsteps - 1;
 390              		.loc 1 111 0
 391 00b0 064B     		ldr	r3, .L30+12
 392 00b2 1A68     		ldr	r2, [r3]
 393 00b4 0132     		adds	r2, r2, #1
 394 00b6 1A60     		str	r2, [r3]
 112:StepperMotorDriver.c ****         return;
 395              		.loc 1 112 0
 396 00b8 9A88     		ldrh	r2, [r3, #4]
 397 00ba 013A     		subs	r2, r2, #1
 398 00bc 9A80     		strh	r2, [r3, #4]	@ movhi
 399              	.L20:
 400 00be 08BD     		pop	{r3, pc}
 401              	.L31:
 402              		.align	2
 403              	.L30:
 404 00c0 00000000 		.word	.LANCHOR1
 405 00c4 07000080 		.word	-2147483641
 406 00c8 04000000 		.word	.LANCHOR1+4
 407 00cc 00000000 		.word	.LANCHOR0
 408              		.cfi_endproc
 409              	.LFE69:
 410              		.size	azimuth, .-azimuth
 411              		.section	.text.moveElevation,"ax",%progbits
 412              		.align	2
 413              		.global	moveElevation
 414              		.thumb
 415              		.thumb_func
 416              		.type	moveElevation, %function
 417              	moveElevation:
 418              	.LFB71:
 124:StepperMotorDriver.c **** }
 125:StepperMotorDriver.c **** 
 126:StepperMotorDriver.c **** 
 127:StepperMotorDriver.c **** void moveElevation(int steps)
 128:StepperMotorDriver.c **** {   // function to set steps to be takben by elevation motor
 419              		.loc 1 128 0
 420              		.cfi_startproc
ARM GAS  C:\Users\madse\AppData\Local\Temp\cc21DXt8.s 			page 11


 421              		@ args = 0, pretend = 0, frame = 0
 422              		@ frame_needed = 0, uses_anonymous_args = 0
 423              		@ link register save eliminated.
 424              	.LVL36:
 129:StepperMotorDriver.c ****     eStep = steps;
 425              		.loc 1 129 0
 426 0000 014B     		ldr	r3, .L33
 427 0002 9860     		str	r0, [r3, #8]
 428 0004 7047     		bx	lr
 429              	.L34:
 430 0006 00BF     		.align	2
 431              	.L33:
 432 0008 00000000 		.word	.LANCHOR0
 433              		.cfi_endproc
 434              	.LFE71:
 435              		.size	moveElevation, .-moveElevation
 436              		.section	.text.elevationStep,"ax",%progbits
 437              		.align	2
 438              		.global	elevationStep
 439              		.thumb
 440              		.thumb_func
 441              		.type	elevationStep, %function
 442              	elevationStep:
 443              	.LFB73:
 130:StepperMotorDriver.c **** }
 131:StepperMotorDriver.c **** 
 132:StepperMotorDriver.c **** void elevation()
 133:StepperMotorDriver.c **** {   // function to calculate next elevation step based and call elevationStep()
 134:StepperMotorDriver.c ****     if (Elevation_Pin_1_Read() == 0 && Elevation_Pin_2_Read() == 0 && Elevation_Pin_3_Read() == 0 &
 135:StepperMotorDriver.c ****     {   // if the motor is off turn it on, on the same step as last time
 136:StepperMotorDriver.c ****         elevationStep(stepSequence[elevationSteps % STEPS]);
 137:StepperMotorDriver.c ****         return;
 138:StepperMotorDriver.c ****     }
 139:StepperMotorDriver.c ****     if (eStep > 0)
 140:StepperMotorDriver.c ****     {   // turning up (positiv steps)
 141:StepperMotorDriver.c ****         if (!Limit_Up_Read())
 142:StepperMotorDriver.c ****         {   // if up limit is reached, don't move
 143:StepperMotorDriver.c ****             eStep = 0;
 144:StepperMotorDriver.c ****             return;
 145:StepperMotorDriver.c ****         }
 146:StepperMotorDriver.c ****         // set elevation motor pins to next step and decrease steps to be taken
 147:StepperMotorDriver.c ****         elevationStep(stepSequence[++elevationSteps % STEPS]);
 148:StepperMotorDriver.c ****         eStep = eStep - 1;
 149:StepperMotorDriver.c ****         currentEsteps = currentEsteps + 1;
 150:StepperMotorDriver.c ****         return;
 151:StepperMotorDriver.c ****     }
 152:StepperMotorDriver.c ****     
 153:StepperMotorDriver.c ****     else if (eStep < 0)
 154:StepperMotorDriver.c ****     {   // turning down (negativ steps)
 155:StepperMotorDriver.c ****         if (!Limit_Down_Read())
 156:StepperMotorDriver.c ****         {   // if down limit is reached, don't move
 157:StepperMotorDriver.c ****             eStep = 0;
 158:StepperMotorDriver.c ****             return;
 159:StepperMotorDriver.c ****         }
 160:StepperMotorDriver.c ****         // set elevation motor pins to next step and decrease steps to be taken
 161:StepperMotorDriver.c ****         elevationStep(stepSequence[--elevationSteps % STEPS]);
 162:StepperMotorDriver.c ****         eStep = eStep + 1;
ARM GAS  C:\Users\madse\AppData\Local\Temp\cc21DXt8.s 			page 12


 163:StepperMotorDriver.c ****         currentEsteps = currentEsteps - 1;
 164:StepperMotorDriver.c ****         return;
 165:StepperMotorDriver.c ****     }
 166:StepperMotorDriver.c ****     return;
 167:StepperMotorDriver.c **** }
 168:StepperMotorDriver.c **** 
 169:StepperMotorDriver.c **** void elevationStep(int sequence[4])
 170:StepperMotorDriver.c **** {   // function to write sequence to elevation motor pins
 444              		.loc 1 170 0
 445              		.cfi_startproc
 446              		@ args = 0, pretend = 0, frame = 0
 447              		@ frame_needed = 0, uses_anonymous_args = 0
 448              	.LVL37:
 449 0000 10B5     		push	{r4, lr}
 450              		.cfi_def_cfa_offset 8
 451              		.cfi_offset 4, -8
 452              		.cfi_offset 14, -4
 453 0002 0446     		mov	r4, r0
 171:StepperMotorDriver.c ****     Elevation_Pin_1_Write(sequence[0]);
 454              		.loc 1 171 0
 455 0004 0078     		ldrb	r0, [r0]	@ zero_extendqisi2
 456              	.LVL38:
 457 0006 FFF7FEFF 		bl	Elevation_Pin_1_Write
 458              	.LVL39:
 172:StepperMotorDriver.c ****     Elevation_Pin_2_Write(sequence[1]);
 459              		.loc 1 172 0
 460 000a 2079     		ldrb	r0, [r4, #4]	@ zero_extendqisi2
 461 000c FFF7FEFF 		bl	Elevation_Pin_2_Write
 462              	.LVL40:
 173:StepperMotorDriver.c ****     Elevation_Pin_3_Write(sequence[2]);
 463              		.loc 1 173 0
 464 0010 207A     		ldrb	r0, [r4, #8]	@ zero_extendqisi2
 465 0012 FFF7FEFF 		bl	Elevation_Pin_3_Write
 466              	.LVL41:
 174:StepperMotorDriver.c ****     Elevation_Pin_4_Write(sequence[3]);
 467              		.loc 1 174 0
 468 0016 207B     		ldrb	r0, [r4, #12]	@ zero_extendqisi2
 469 0018 FFF7FEFF 		bl	Elevation_Pin_4_Write
 470              	.LVL42:
 471 001c 10BD     		pop	{r4, pc}
 472              		.cfi_endproc
 473              	.LFE73:
 474              		.size	elevationStep, .-elevationStep
 475 001e 00BF     		.section	.text.elevation,"ax",%progbits
 476              		.align	2
 477              		.global	elevation
 478              		.thumb
 479              		.thumb_func
 480              		.type	elevation, %function
 481              	elevation:
 482              	.LFB72:
 133:StepperMotorDriver.c ****     if (Elevation_Pin_1_Read() == 0 && Elevation_Pin_2_Read() == 0 && Elevation_Pin_3_Read() == 0 &
 483              		.loc 1 133 0
 484              		.cfi_startproc
 485              		@ args = 0, pretend = 0, frame = 0
 486              		@ frame_needed = 0, uses_anonymous_args = 0
 487 0000 08B5     		push	{r3, lr}
ARM GAS  C:\Users\madse\AppData\Local\Temp\cc21DXt8.s 			page 13


 488              		.cfi_def_cfa_offset 8
 489              		.cfi_offset 3, -8
 490              		.cfi_offset 14, -4
 134:StepperMotorDriver.c ****     {   // if the motor is off turn it on, on the same step as last time
 491              		.loc 1 134 0
 492 0002 FFF7FEFF 		bl	Elevation_Pin_1_Read
 493              	.LVL43:
 494 0006 C0B9     		cbnz	r0, .L38
 134:StepperMotorDriver.c ****     {   // if the motor is off turn it on, on the same step as last time
 495              		.loc 1 134 0 is_stmt 0 discriminator 1
 496 0008 FFF7FEFF 		bl	Elevation_Pin_2_Read
 497              	.LVL44:
 498 000c A8B9     		cbnz	r0, .L38
 134:StepperMotorDriver.c ****     {   // if the motor is off turn it on, on the same step as last time
 499              		.loc 1 134 0 discriminator 2
 500 000e FFF7FEFF 		bl	Elevation_Pin_3_Read
 501              	.LVL45:
 502 0012 90B9     		cbnz	r0, .L38
 134:StepperMotorDriver.c ****     {   // if the motor is off turn it on, on the same step as last time
 503              		.loc 1 134 0 discriminator 3
 504 0014 FFF7FEFF 		bl	Elevation_Pin_4_Read
 505              	.LVL46:
 506 0018 78B9     		cbnz	r0, .L38
 136:StepperMotorDriver.c ****         return;
 507              		.loc 1 136 0 is_stmt 1
 508 001a 2C4B     		ldr	r3, .L47
 509 001c D3F88430 		ldr	r3, [r3, #132]
 510 0020 2B4A     		ldr	r2, .L47+4
 511 0022 1340     		ands	r3, r3, r2
 512 0024 03D5     		bpl	.L39
 513 0026 013B     		subs	r3, r3, #1
 514 0028 63F00703 		orn	r3, r3, #7
 515 002c 0133     		adds	r3, r3, #1
 516              	.L39:
 517 002e 2948     		ldr	r0, .L47+8
 518 0030 00EB0310 		add	r0, r0, r3, lsl #4
 519 0034 FFF7FEFF 		bl	elevationStep
 520              	.LVL47:
 137:StepperMotorDriver.c ****     }
 521              		.loc 1 137 0
 522 0038 08BD     		pop	{r3, pc}
 523              	.L38:
 139:StepperMotorDriver.c ****     {   // turning up (positiv steps)
 524              		.loc 1 139 0
 525 003a 274B     		ldr	r3, .L47+12
 526 003c 9B68     		ldr	r3, [r3, #8]
 527 003e 002B     		cmp	r3, #0
 528 0040 20DD     		ble	.L41
 141:StepperMotorDriver.c ****         {   // if up limit is reached, don't move
 529              		.loc 1 141 0
 530 0042 FFF7FEFF 		bl	Limit_Up_Read
 531              	.LVL48:
 532 0046 18B9     		cbnz	r0, .L42
 143:StepperMotorDriver.c ****             return;
 533              		.loc 1 143 0
 534 0048 0022     		movs	r2, #0
 535 004a 234B     		ldr	r3, .L47+12
ARM GAS  C:\Users\madse\AppData\Local\Temp\cc21DXt8.s 			page 14


 536 004c 9A60     		str	r2, [r3, #8]
 144:StepperMotorDriver.c ****         }
 537              		.loc 1 144 0
 538 004e 08BD     		pop	{r3, pc}
 539              	.L42:
 147:StepperMotorDriver.c ****         eStep = eStep - 1;
 540              		.loc 1 147 0
 541 0050 1E4A     		ldr	r2, .L47
 542 0052 D2F88430 		ldr	r3, [r2, #132]
 543 0056 0133     		adds	r3, r3, #1
 544 0058 C2F88430 		str	r3, [r2, #132]
 545 005c 1C48     		ldr	r0, .L47+4
 546 005e 0340     		ands	r3, r3, r0
 547 0060 03D5     		bpl	.L43
 548 0062 013B     		subs	r3, r3, #1
 549 0064 63F00703 		orn	r3, r3, #7
 550 0068 0133     		adds	r3, r3, #1
 551              	.L43:
 552 006a 1A48     		ldr	r0, .L47+8
 553 006c 00EB0310 		add	r0, r0, r3, lsl #4
 554 0070 FFF7FEFF 		bl	elevationStep
 555              	.LVL49:
 148:StepperMotorDriver.c ****         currentEsteps = currentEsteps + 1;
 556              		.loc 1 148 0
 557 0074 184B     		ldr	r3, .L47+12
 558 0076 9A68     		ldr	r2, [r3, #8]
 559 0078 013A     		subs	r2, r2, #1
 560 007a 9A60     		str	r2, [r3, #8]
 149:StepperMotorDriver.c ****         return;
 561              		.loc 1 149 0
 562 007c DA88     		ldrh	r2, [r3, #6]
 563 007e 0132     		adds	r2, r2, #1
 564 0080 DA80     		strh	r2, [r3, #6]	@ movhi
 150:StepperMotorDriver.c ****     }
 565              		.loc 1 150 0
 566 0082 08BD     		pop	{r3, pc}
 567              	.L41:
 153:StepperMotorDriver.c ****     {   // turning down (negativ steps)
 568              		.loc 1 153 0
 569 0084 002B     		cmp	r3, #0
 570 0086 1FDA     		bge	.L37
 155:StepperMotorDriver.c ****         {   // if down limit is reached, don't move
 571              		.loc 1 155 0
 572 0088 FFF7FEFF 		bl	Limit_Down_Read
 573              	.LVL50:
 574 008c 18B9     		cbnz	r0, .L44
 157:StepperMotorDriver.c ****             return;
 575              		.loc 1 157 0
 576 008e 0022     		movs	r2, #0
 577 0090 114B     		ldr	r3, .L47+12
 578 0092 9A60     		str	r2, [r3, #8]
 158:StepperMotorDriver.c ****         }
 579              		.loc 1 158 0
 580 0094 08BD     		pop	{r3, pc}
 581              	.L44:
 161:StepperMotorDriver.c ****         eStep = eStep + 1;
 582              		.loc 1 161 0
ARM GAS  C:\Users\madse\AppData\Local\Temp\cc21DXt8.s 			page 15


 583 0096 0D4A     		ldr	r2, .L47
 584 0098 D2F88430 		ldr	r3, [r2, #132]
 585 009c 013B     		subs	r3, r3, #1
 586 009e C2F88430 		str	r3, [r2, #132]
 587 00a2 0B48     		ldr	r0, .L47+4
 588 00a4 0340     		ands	r3, r3, r0
 589 00a6 03D5     		bpl	.L45
 590 00a8 013B     		subs	r3, r3, #1
 591 00aa 63F00703 		orn	r3, r3, #7
 592 00ae 0133     		adds	r3, r3, #1
 593              	.L45:
 594 00b0 0848     		ldr	r0, .L47+8
 595 00b2 00EB0310 		add	r0, r0, r3, lsl #4
 596 00b6 FFF7FEFF 		bl	elevationStep
 597              	.LVL51:
 162:StepperMotorDriver.c ****         currentEsteps = currentEsteps - 1;
 598              		.loc 1 162 0
 599 00ba 074B     		ldr	r3, .L47+12
 600 00bc 9A68     		ldr	r2, [r3, #8]
 601 00be 0132     		adds	r2, r2, #1
 602 00c0 9A60     		str	r2, [r3, #8]
 163:StepperMotorDriver.c ****         return;
 603              		.loc 1 163 0
 604 00c2 DA88     		ldrh	r2, [r3, #6]
 605 00c4 013A     		subs	r2, r2, #1
 606 00c6 DA80     		strh	r2, [r3, #6]	@ movhi
 607              	.L37:
 608 00c8 08BD     		pop	{r3, pc}
 609              	.L48:
 610 00ca 00BF     		.align	2
 611              	.L47:
 612 00cc 00000000 		.word	.LANCHOR1
 613 00d0 07000080 		.word	-2147483641
 614 00d4 04000000 		.word	.LANCHOR1+4
 615 00d8 00000000 		.word	.LANCHOR0
 616              		.cfi_endproc
 617              	.LFE72:
 618              		.size	elevation, .-elevation
 619              		.section	.text.MOTOR_STEP,"ax",%progbits
 620              		.align	2
 621              		.global	MOTOR_STEP
 622              		.thumb
 623              		.thumb_func
 624              		.type	MOTOR_STEP, %function
 625              	MOTOR_STEP:
 626              	.LFB74:
 175:StepperMotorDriver.c **** }
 176:StepperMotorDriver.c **** 
 177:StepperMotorDriver.c **** 
 178:StepperMotorDriver.c **** CY_ISR(MOTOR_STEP)
 179:StepperMotorDriver.c **** {   // interupt rutine activated by clock to take steps
 627              		.loc 1 179 0
 628              		.cfi_startproc
 629              		@ args = 0, pretend = 0, frame = 0
 630              		@ frame_needed = 0, uses_anonymous_args = 0
 631 0000 08B5     		push	{r3, lr}
 632              		.cfi_def_cfa_offset 8
ARM GAS  C:\Users\madse\AppData\Local\Temp\cc21DXt8.s 			page 16


 633              		.cfi_offset 3, -8
 634              		.cfi_offset 14, -4
 180:StepperMotorDriver.c ****     if (aStep)
 635              		.loc 1 180 0
 636 0002 194B     		ldr	r3, .L57
 637 0004 1B68     		ldr	r3, [r3]
 638 0006 13B1     		cbz	r3, .L50
 181:StepperMotorDriver.c ****     {   // if aStep != 0 move
 182:StepperMotorDriver.c ****         azimuth();
 639              		.loc 1 182 0
 640 0008 FFF7FEFF 		bl	azimuth
 641              	.LVL52:
 642 000c 12E0     		b	.L51
 643              	.L50:
 183:StepperMotorDriver.c ****     }
 184:StepperMotorDriver.c ****     else if (Azimuth_Pin_1_Read() == 1 || Azimuth_Pin_2_Read() == 1 || Azimuth_Pin_3_Read() == 1 ||
 644              		.loc 1 184 0
 645 000e FFF7FEFF 		bl	Azimuth_Pin_1_Read
 646              	.LVL53:
 647 0012 0128     		cmp	r0, #1
 648 0014 0BD0     		beq	.L52
 649              		.loc 1 184 0 is_stmt 0 discriminator 1
 650 0016 FFF7FEFF 		bl	Azimuth_Pin_2_Read
 651              	.LVL54:
 652 001a 0128     		cmp	r0, #1
 653 001c 07D0     		beq	.L52
 654              		.loc 1 184 0 discriminator 2
 655 001e FFF7FEFF 		bl	Azimuth_Pin_3_Read
 656              	.LVL55:
 657 0022 0128     		cmp	r0, #1
 658 0024 03D0     		beq	.L52
 659              		.loc 1 184 0 discriminator 3
 660 0026 FFF7FEFF 		bl	Azimuth_Pin_4_Read
 661              	.LVL56:
 662 002a 0128     		cmp	r0, #1
 663 002c 02D1     		bne	.L51
 664              	.L52:
 185:StepperMotorDriver.c ****     {   // if we didn't move and motor is on, turn it off
 186:StepperMotorDriver.c ****         azimuthStep(off);
 665              		.loc 1 186 0 is_stmt 1
 666 002e 0F48     		ldr	r0, .L57+4
 667 0030 FFF7FEFF 		bl	azimuthStep
 668              	.LVL57:
 669              	.L51:
 187:StepperMotorDriver.c ****     }
 188:StepperMotorDriver.c ****     
 189:StepperMotorDriver.c ****     if (eStep)
 670              		.loc 1 189 0
 671 0034 0C4B     		ldr	r3, .L57
 672 0036 9B68     		ldr	r3, [r3, #8]
 673 0038 13B1     		cbz	r3, .L53
 190:StepperMotorDriver.c ****     {   // if eStep != 0 move
 191:StepperMotorDriver.c ****         elevation();
 674              		.loc 1 191 0
 675 003a FFF7FEFF 		bl	elevation
 676              	.LVL58:
 677 003e 08BD     		pop	{r3, pc}
ARM GAS  C:\Users\madse\AppData\Local\Temp\cc21DXt8.s 			page 17


 678              	.L53:
 192:StepperMotorDriver.c ****     }
 193:StepperMotorDriver.c ****     else if (Elevation_Pin_1_Read() == 1 || Elevation_Pin_2_Read() == 1 || Elevation_Pin_3_Read() =
 679              		.loc 1 193 0
 680 0040 FFF7FEFF 		bl	Elevation_Pin_1_Read
 681              	.LVL59:
 682 0044 0128     		cmp	r0, #1
 683 0046 0BD0     		beq	.L55
 684              		.loc 1 193 0 is_stmt 0 discriminator 1
 685 0048 FFF7FEFF 		bl	Elevation_Pin_2_Read
 686              	.LVL60:
 687 004c 0128     		cmp	r0, #1
 688 004e 07D0     		beq	.L55
 689              		.loc 1 193 0 discriminator 2
 690 0050 FFF7FEFF 		bl	Elevation_Pin_3_Read
 691              	.LVL61:
 692 0054 0128     		cmp	r0, #1
 693 0056 03D0     		beq	.L55
 694              		.loc 1 193 0 discriminator 3
 695 0058 FFF7FEFF 		bl	Elevation_Pin_4_Read
 696              	.LVL62:
 697 005c 0128     		cmp	r0, #1
 698 005e 02D1     		bne	.L49
 699              	.L55:
 194:StepperMotorDriver.c ****     {   // if we didn't move and motor is on, turn it off
 195:StepperMotorDriver.c ****         elevationStep(off);
 700              		.loc 1 195 0 is_stmt 1
 701 0060 0248     		ldr	r0, .L57+4
 702 0062 FFF7FEFF 		bl	elevationStep
 703              	.LVL63:
 704              	.L49:
 705 0066 08BD     		pop	{r3, pc}
 706              	.L58:
 707              		.align	2
 708              	.L57:
 709 0068 00000000 		.word	.LANCHOR0
 710 006c 0C000000 		.word	.LANCHOR0+12
 711              		.cfi_endproc
 712              	.LFE74:
 713              		.size	MOTOR_STEP, .-MOTOR_STEP
 714              		.section	.text.limitLeft,"ax",%progbits
 715              		.align	2
 716              		.global	limitLeft
 717              		.thumb
 718              		.thumb_func
 719              		.type	limitLeft, %function
 720              	limitLeft:
 721              	.LFB75:
 196:StepperMotorDriver.c ****     }
 197:StepperMotorDriver.c **** }
 198:StepperMotorDriver.c **** 
 199:StepperMotorDriver.c **** bool limitLeft(){return !Limit_Left_Read();}
 722              		.loc 1 199 0
 723              		.cfi_startproc
 724              		@ args = 0, pretend = 0, frame = 0
 725              		@ frame_needed = 0, uses_anonymous_args = 0
 726 0000 08B5     		push	{r3, lr}
ARM GAS  C:\Users\madse\AppData\Local\Temp\cc21DXt8.s 			page 18


 727              		.cfi_def_cfa_offset 8
 728              		.cfi_offset 3, -8
 729              		.cfi_offset 14, -4
 730              		.loc 1 199 0
 731 0002 FFF7FEFF 		bl	Limit_Left_Read
 732              	.LVL64:
 733 0006 B0FA80F0 		clz	r0, r0
 734 000a 4009     		lsrs	r0, r0, #5
 735 000c 08BD     		pop	{r3, pc}
 736              		.cfi_endproc
 737              	.LFE75:
 738              		.size	limitLeft, .-limitLeft
 739 000e 00BF     		.section	.text.limitRight,"ax",%progbits
 740              		.align	2
 741              		.global	limitRight
 742              		.thumb
 743              		.thumb_func
 744              		.type	limitRight, %function
 745              	limitRight:
 746              	.LFB76:
 200:StepperMotorDriver.c **** 
 201:StepperMotorDriver.c **** bool limitRight(){return !Limit_Right_Read();}
 747              		.loc 1 201 0
 748              		.cfi_startproc
 749              		@ args = 0, pretend = 0, frame = 0
 750              		@ frame_needed = 0, uses_anonymous_args = 0
 751 0000 08B5     		push	{r3, lr}
 752              		.cfi_def_cfa_offset 8
 753              		.cfi_offset 3, -8
 754              		.cfi_offset 14, -4
 755              		.loc 1 201 0
 756 0002 FFF7FEFF 		bl	Limit_Right_Read
 757              	.LVL65:
 758 0006 B0FA80F0 		clz	r0, r0
 759 000a 4009     		lsrs	r0, r0, #5
 760 000c 08BD     		pop	{r3, pc}
 761              		.cfi_endproc
 762              	.LFE76:
 763              		.size	limitRight, .-limitRight
 764 000e 00BF     		.section	.text.limitUp,"ax",%progbits
 765              		.align	2
 766              		.global	limitUp
 767              		.thumb
 768              		.thumb_func
 769              		.type	limitUp, %function
 770              	limitUp:
 771              	.LFB77:
 202:StepperMotorDriver.c **** 
 203:StepperMotorDriver.c **** bool limitUp(){return !Limit_Up_Read();}
 772              		.loc 1 203 0
 773              		.cfi_startproc
 774              		@ args = 0, pretend = 0, frame = 0
 775              		@ frame_needed = 0, uses_anonymous_args = 0
 776 0000 08B5     		push	{r3, lr}
 777              		.cfi_def_cfa_offset 8
 778              		.cfi_offset 3, -8
 779              		.cfi_offset 14, -4
ARM GAS  C:\Users\madse\AppData\Local\Temp\cc21DXt8.s 			page 19


 780              		.loc 1 203 0
 781 0002 FFF7FEFF 		bl	Limit_Up_Read
 782              	.LVL66:
 783 0006 B0FA80F0 		clz	r0, r0
 784 000a 4009     		lsrs	r0, r0, #5
 785 000c 08BD     		pop	{r3, pc}
 786              		.cfi_endproc
 787              	.LFE77:
 788              		.size	limitUp, .-limitUp
 789 000e 00BF     		.section	.text.limitDown,"ax",%progbits
 790              		.align	2
 791              		.global	limitDown
 792              		.thumb
 793              		.thumb_func
 794              		.type	limitDown, %function
 795              	limitDown:
 796              	.LFB78:
 204:StepperMotorDriver.c **** 
 205:StepperMotorDriver.c **** bool limitDown(){return !Limit_Down_Read();}
 797              		.loc 1 205 0
 798              		.cfi_startproc
 799              		@ args = 0, pretend = 0, frame = 0
 800              		@ frame_needed = 0, uses_anonymous_args = 0
 801 0000 08B5     		push	{r3, lr}
 802              		.cfi_def_cfa_offset 8
 803              		.cfi_offset 3, -8
 804              		.cfi_offset 14, -4
 805              		.loc 1 205 0
 806 0002 FFF7FEFF 		bl	Limit_Down_Read
 807              	.LVL67:
 808 0006 B0FA80F0 		clz	r0, r0
 809 000a 4009     		lsrs	r0, r0, #5
 810 000c 08BD     		pop	{r3, pc}
 811              		.cfi_endproc
 812              	.LFE78:
 813              		.size	limitDown, .-limitDown
 814 000e 00BF     		.data
 815              		.align	2
 816              		.set	.LANCHOR1,. + 0
 817              		.type	azimuthSteps, %object
 818              		.size	azimuthSteps, 4
 819              	azimuthSteps:
 820 0000 00127A00 		.word	8000000
 821              		.type	stepSequence, %object
 822              		.size	stepSequence, 128
 823              	stepSequence:
 824 0004 01000000 		.word	1
 825 0008 00000000 		.word	0
 826 000c 00000000 		.word	0
 827 0010 01000000 		.word	1
 828 0014 00000000 		.word	0
 829 0018 00000000 		.word	0
 830 001c 00000000 		.word	0
 831 0020 01000000 		.word	1
 832 0024 00000000 		.word	0
 833 0028 00000000 		.word	0
 834 002c 01000000 		.word	1
ARM GAS  C:\Users\madse\AppData\Local\Temp\cc21DXt8.s 			page 20


 835 0030 01000000 		.word	1
 836 0034 00000000 		.word	0
 837 0038 00000000 		.word	0
 838 003c 01000000 		.word	1
 839 0040 00000000 		.word	0
 840 0044 00000000 		.word	0
 841 0048 01000000 		.word	1
 842 004c 01000000 		.word	1
 843 0050 00000000 		.word	0
 844 0054 00000000 		.word	0
 845 0058 01000000 		.word	1
 846 005c 00000000 		.word	0
 847 0060 00000000 		.word	0
 848 0064 01000000 		.word	1
 849 0068 01000000 		.word	1
 850 006c 00000000 		.word	0
 851 0070 00000000 		.word	0
 852 0074 01000000 		.word	1
 853 0078 00000000 		.word	0
 854 007c 00000000 		.word	0
 855 0080 00000000 		.word	0
 856              		.type	elevationSteps, %object
 857              		.size	elevationSteps, 4
 858              	elevationSteps:
 859 0084 00127A00 		.word	8000000
 860              		.section	.rodata.str1.4,"aMS",%progbits,1
 861              		.align	2
 862              	.LC0:
 863 0000 41737465 		.ascii	"Asteps: %i - Rounded: %i \015\012\000"
 863      70733A20 
 863      2569202D 
 863      20526F75 
 863      6E646564 
 864              	.LC1:
 865 001c 45737465 		.ascii	"Esteps: %i - Rounded: %i \015\012\000"
 865      70733A20 
 865      2569202D 
 865      20526F75 
 865      6E646564 
 866              		.bss
 867              		.align	2
 868              		.set	.LANCHOR0,. + 0
 869              		.type	aStep, %object
 870              		.size	aStep, 4
 871              	aStep:
 872 0000 00000000 		.space	4
 873              		.type	currentAsteps, %object
 874              		.size	currentAsteps, 2
 875              	currentAsteps:
 876 0004 0000     		.space	2
 877              		.type	currentEsteps, %object
 878              		.size	currentEsteps, 2
 879              	currentEsteps:
 880 0006 0000     		.space	2
 881              		.type	eStep, %object
 882              		.size	eStep, 4
 883              	eStep:
ARM GAS  C:\Users\madse\AppData\Local\Temp\cc21DXt8.s 			page 21


 884 0008 00000000 		.space	4
 885              		.type	off, %object
 886              		.size	off, 16
 887              	off:
 888 000c 00000000 		.space	16
 888      00000000 
 888      00000000 
 888      00000000 
 889              		.text
 890              	.Letext0:
 891              		.file 2 "c:\\program files (x86)\\cypress\\psoc creator\\4.4\\psoc creator\\import\\gnu\\arm\\5.4.
 892              		.file 3 "c:\\program files (x86)\\cypress\\psoc creator\\4.4\\psoc creator\\import\\gnu\\arm\\5.4.
 893              		.file 4 "c:\\program files (x86)\\cypress\\psoc creator\\4.4\\psoc creator\\import\\gnu\\arm\\5.4.
 894              		.file 5 "c:\\program files (x86)\\cypress\\psoc creator\\4.4\\psoc creator\\import\\gnu\\arm\\5.4.
 895              		.file 6 "Generated_Source\\PSoC5/UART_1.h"
 896              		.file 7 "Generated_Source\\PSoC5/Azimuth_Pin_1.h"
 897              		.file 8 "Generated_Source\\PSoC5/Azimuth_Pin_2.h"
 898              		.file 9 "Generated_Source\\PSoC5/Azimuth_Pin_3.h"
 899              		.file 10 "Generated_Source\\PSoC5/Azimuth_Pin_4.h"
 900              		.file 11 "Generated_Source\\PSoC5/Limit_Left.h"
 901              		.file 12 "Generated_Source\\PSoC5/Limit_Right.h"
 902              		.file 13 "Generated_Source\\PSoC5/Elevation_Pin_1.h"
 903              		.file 14 "Generated_Source\\PSoC5/Elevation_Pin_2.h"
 904              		.file 15 "Generated_Source\\PSoC5/Elevation_Pin_3.h"
 905              		.file 16 "Generated_Source\\PSoC5/Elevation_Pin_4.h"
 906              		.file 17 "Generated_Source\\PSoC5/Limit_Up.h"
 907              		.file 18 "Generated_Source\\PSoC5/Limit_Down.h"
 908              		.file 19 "Generated_Source\\PSoC5/core_cm3.h"