ARM GAS  C:\Users\madse\AppData\Local\Temp\ccryAq5T.s 			page 1


   1              		.syntax unified
   2              		.cpu cortex-m3
   3              		.fpu softvfp
   4              		.eabi_attribute 20, 1
   5              		.eabi_attribute 21, 1
   6              		.eabi_attribute 23, 3
   7              		.eabi_attribute 24, 1
   8              		.eabi_attribute 25, 1
   9              		.eabi_attribute 26, 1
  10              		.eabi_attribute 30, 1
  11              		.eabi_attribute 34, 1
  12              		.eabi_attribute 18, 4
  13              		.thumb
  14              		.syntax unified
  15              		.file	"main.c"
  16              		.text
  17              	.Ltext0:
  18              		.cfi_sections	.debug_frame
  19              		.section	.text.TIMER_STEP,"ax",%progbits
  20              		.align	2
  21              		.global	TIMER_STEP
  22              		.thumb
  23              		.thumb_func
  24              		.type	TIMER_STEP, %function
  25              	TIMER_STEP:
  26              	.LFB68:
  27              		.file 1 "main.c"
   1:main.c        **** /* ========================================
   2:main.c        ****  *
   3:main.c        ****  *          Software holdet
   4:main.c        ****  *
   5:main.c        ****  * ========================================
   6:main.c        **** */
   7:main.c        **** 
   8:main.c        **** #include "project.h"
   9:main.c        **** #include "StepperMotorDriver.h"
  10:main.c        **** #include "SensorDriver.h"
  11:main.c        **** #include "BatteryDriver.h"
  12:main.c        **** 
  13:main.c        **** #include "Mode.h"
  14:main.c        **** #include <stdio.h>
  15:main.c        **** 
  16:main.c        **** volatile enum mode current_mode = AUTOMATIC;
  17:main.c        **** 
  18:main.c        **** void goHome()
  19:main.c        **** {
  20:main.c        ****     moveElevation(10000); // Go to home
  21:main.c        ****     CyDelay(5000);
  22:main.c        ****     moveElevation(-660);
  23:main.c        ****     CyDelay(2000);
  24:main.c        ****     moveAzimuth(-10000);
  25:main.c        ****     CyDelay(5000);
  26:main.c        ****     moveAzimuth(3100);
  27:main.c        ****     CyDelay(5000);
  28:main.c        ****     resetAzimuth();
  29:main.c        ****     resetElevation();
  30:main.c        **** }
ARM GAS  C:\Users\madse\AppData\Local\Temp\ccryAq5T.s 			page 2


  31:main.c        **** 
  32:main.c        **** void automaticAction() {
  33:main.c        ****     
  34:main.c        **** }
  35:main.c        **** 
  36:main.c        **** void manualAction(uint8_t command) {
  37:main.c        ****     switch (command)
  38:main.c        ****     {
  39:main.c        ****         case 1:
  40:main.c        ****             // Move 100 steps left.
  41:main.c        ****             moveAzimuth(200);
  42:main.c        ****             break;
  43:main.c        ****         case 2:
  44:main.c        ****             // Move 100 steps right.
  45:main.c        ****             moveAzimuth(-200);
  46:main.c        ****             break;
  47:main.c        ****         case 3:
  48:main.c        ****             // Move 100 steps up.
  49:main.c        ****             moveElevation(200);
  50:main.c        ****             break;
  51:main.c        ****         case 4:
  52:main.c        ****             // Move 100 steps down.
  53:main.c        ****             moveElevation(-200);
  54:main.c        ****             break;
  55:main.c        ****         case 7:
  56:main.c        ****             goHome();
  57:main.c        ****             break;
  58:main.c        ****         default:
  59:main.c        ****             // Ignore other commands.
  60:main.c        ****             break;
  61:main.c        ****     }
  62:main.c        **** }
  63:main.c        **** 
  64:main.c        **** CY_ISR(SPI_RX_HANDLER)
  65:main.c        **** { 
  66:main.c        ****     if (SPIS_1_GetRxBufferSize() == 0) {
  67:main.c        ****         return;
  68:main.c        ****     }
  69:main.c        ****     
  70:main.c        ****     // UART_1_PutString("Modtog SPI interrupt");
  71:main.c        ****     uint8_t recievedData = SPIS_1_ReadRxData();
  72:main.c        ****     
  73:main.c        ****     char buff[64];
  74:main.c        ****     snprintf(buff, sizeof(buff), "Data: %i  \r\n", recievedData);
  75:main.c        ****     UART_1_PutString(buff);
  76:main.c        ****     
  77:main.c        ****     switch (recievedData)
  78:main.c        ****     {
  79:main.c        ****         case 10:
  80:main.c        ****             current_mode = MANUAL;
  81:main.c        ****         case 11:
  82:main.c        ****             current_mode = AUTOMATIC;
  83:main.c        ****         default:
  84:main.c        ****             break;
  85:main.c        ****     }
  86:main.c        ****     
  87:main.c        ****     switch (current_mode) {
ARM GAS  C:\Users\madse\AppData\Local\Temp\ccryAq5T.s 			page 3


  88:main.c        ****         case AUTOMATIC:
  89:main.c        ****             automaticAction();
  90:main.c        ****             break;
  91:main.c        ****         case MANUAL:
  92:main.c        ****             manualAction(recievedData);
  93:main.c        ****             break;    
  94:main.c        ****     }
  95:main.c        ****     
  96:main.c        ****     MOTOR_STEP();
  97:main.c        **** }
  98:main.c        **** 
  99:main.c        **** CY_ISR(TIMER_STEP) {
  28              		.loc 1 99 0
  29              		.cfi_startproc
  30              		@ args = 0, pretend = 0, frame = 0
  31              		@ frame_needed = 0, uses_anonymous_args = 0
  32 0000 08B5     		push	{r3, lr}
  33              		.cfi_def_cfa_offset 8
  34              		.cfi_offset 3, -8
  35              		.cfi_offset 14, -4
 100:main.c        ****     UART_1_PutString("TIMER\r\n");
  36              		.loc 1 100 0
  37 0002 0348     		ldr	r0, .L3
  38 0004 FFF7FEFF 		bl	UART_1_PutString
  39              	.LVL0:
 101:main.c        ****     Timer_1_ReadStatusRegister();
  40              		.loc 1 101 0
  41 0008 FFF7FEFF 		bl	Timer_1_ReadStatusRegister
  42              	.LVL1:
  43 000c 08BD     		pop	{r3, pc}
  44              	.L4:
  45 000e 00BF     		.align	2
  46              	.L3:
  47 0010 00000000 		.word	.LC0
  48              		.cfi_endproc
  49              	.LFE68:
  50              		.size	TIMER_STEP, .-TIMER_STEP
  51              		.section	.text.goHome,"ax",%progbits
  52              		.align	2
  53              		.global	goHome
  54              		.thumb
  55              		.thumb_func
  56              		.type	goHome, %function
  57              	goHome:
  58              	.LFB64:
  19:main.c        ****     moveElevation(10000); // Go to home
  59              		.loc 1 19 0
  60              		.cfi_startproc
  61              		@ args = 0, pretend = 0, frame = 0
  62              		@ frame_needed = 0, uses_anonymous_args = 0
  63 0000 08B5     		push	{r3, lr}
  64              		.cfi_def_cfa_offset 8
  65              		.cfi_offset 3, -8
  66              		.cfi_offset 14, -4
  20:main.c        ****     CyDelay(5000);
  67              		.loc 1 20 0
  68 0002 42F21070 		movw	r0, #10000
ARM GAS  C:\Users\madse\AppData\Local\Temp\ccryAq5T.s 			page 4


  69 0006 FFF7FEFF 		bl	moveElevation
  70              	.LVL2:
  21:main.c        ****     moveElevation(-660);
  71              		.loc 1 21 0
  72 000a 41F28830 		movw	r0, #5000
  73 000e FFF7FEFF 		bl	CyDelay
  74              	.LVL3:
  22:main.c        ****     CyDelay(2000);
  75              		.loc 1 22 0
  76 0012 0D48     		ldr	r0, .L7
  77 0014 FFF7FEFF 		bl	moveElevation
  78              	.LVL4:
  23:main.c        ****     moveAzimuth(-10000);
  79              		.loc 1 23 0
  80 0018 4FF4FA60 		mov	r0, #2000
  81 001c FFF7FEFF 		bl	CyDelay
  82              	.LVL5:
  24:main.c        ****     CyDelay(5000);
  83              		.loc 1 24 0
  84 0020 0A48     		ldr	r0, .L7+4
  85 0022 FFF7FEFF 		bl	moveAzimuth
  86              	.LVL6:
  25:main.c        ****     moveAzimuth(3100);
  87              		.loc 1 25 0
  88 0026 41F28830 		movw	r0, #5000
  89 002a FFF7FEFF 		bl	CyDelay
  90              	.LVL7:
  26:main.c        ****     CyDelay(5000);
  91              		.loc 1 26 0
  92 002e 40F61C40 		movw	r0, #3100
  93 0032 FFF7FEFF 		bl	moveAzimuth
  94              	.LVL8:
  27:main.c        ****     resetAzimuth();
  95              		.loc 1 27 0
  96 0036 41F28830 		movw	r0, #5000
  97 003a FFF7FEFF 		bl	CyDelay
  98              	.LVL9:
  28:main.c        ****     resetElevation();
  99              		.loc 1 28 0
 100 003e FFF7FEFF 		bl	resetAzimuth
 101              	.LVL10:
  29:main.c        **** }
 102              		.loc 1 29 0
 103 0042 FFF7FEFF 		bl	resetElevation
 104              	.LVL11:
 105 0046 08BD     		pop	{r3, pc}
 106              	.L8:
 107              		.align	2
 108              	.L7:
 109 0048 6CFDFFFF 		.word	-660
 110 004c F0D8FFFF 		.word	-10000
 111              		.cfi_endproc
 112              	.LFE64:
 113              		.size	goHome, .-goHome
 114              		.section	.text.automaticAction,"ax",%progbits
 115              		.align	2
 116              		.global	automaticAction
ARM GAS  C:\Users\madse\AppData\Local\Temp\ccryAq5T.s 			page 5


 117              		.thumb
 118              		.thumb_func
 119              		.type	automaticAction, %function
 120              	automaticAction:
 121              	.LFB65:
  32:main.c        ****     
 122              		.loc 1 32 0
 123              		.cfi_startproc
 124              		@ args = 0, pretend = 0, frame = 0
 125              		@ frame_needed = 0, uses_anonymous_args = 0
 126              		@ link register save eliminated.
 127 0000 7047     		bx	lr
 128              		.cfi_endproc
 129              	.LFE65:
 130              		.size	automaticAction, .-automaticAction
 131 0002 00BF     		.section	.text.manualAction,"ax",%progbits
 132              		.align	2
 133              		.global	manualAction
 134              		.thumb
 135              		.thumb_func
 136              		.type	manualAction, %function
 137              	manualAction:
 138              	.LFB66:
  36:main.c        ****     switch (command)
 139              		.loc 1 36 0
 140              		.cfi_startproc
 141              		@ args = 0, pretend = 0, frame = 0
 142              		@ frame_needed = 0, uses_anonymous_args = 0
 143              	.LVL12:
  36:main.c        ****     switch (command)
 144              		.loc 1 36 0
 145 0000 08B5     		push	{r3, lr}
 146              		.cfi_def_cfa_offset 8
 147              		.cfi_offset 3, -8
 148              		.cfi_offset 14, -4
  37:main.c        ****     {
 149              		.loc 1 37 0
 150 0002 0138     		subs	r0, r0, #1
 151              	.LVL13:
 152 0004 0628     		cmp	r0, #6
 153 0006 19D8     		bhi	.L10
 154 0008 DFE800F0 		tbb	[pc, r0]
 155              	.L13:
 156 000c 04       		.byte	(.L12-.L13)/2
 157 000d 08       		.byte	(.L14-.L13)/2
 158 000e 0D       		.byte	(.L15-.L13)/2
 159 000f 11       		.byte	(.L16-.L13)/2
 160 0010 18       		.byte	(.L10-.L13)/2
 161 0011 18       		.byte	(.L10-.L13)/2
 162 0012 16       		.byte	(.L17-.L13)/2
 163 0013 00       		.p2align 1
 164              	.L12:
  41:main.c        ****             break;
 165              		.loc 1 41 0
 166 0014 C820     		movs	r0, #200
 167 0016 FFF7FEFF 		bl	moveAzimuth
 168              	.LVL14:
ARM GAS  C:\Users\madse\AppData\Local\Temp\ccryAq5T.s 			page 6


  42:main.c        ****         case 2:
 169              		.loc 1 42 0
 170 001a 08BD     		pop	{r3, pc}
 171              	.L14:
  45:main.c        ****             break;
 172              		.loc 1 45 0
 173 001c 6FF0C700 		mvn	r0, #199
 174 0020 FFF7FEFF 		bl	moveAzimuth
 175              	.LVL15:
  46:main.c        ****         case 3:
 176              		.loc 1 46 0
 177 0024 08BD     		pop	{r3, pc}
 178              	.L15:
  49:main.c        ****             break;
 179              		.loc 1 49 0
 180 0026 C820     		movs	r0, #200
 181 0028 FFF7FEFF 		bl	moveElevation
 182              	.LVL16:
  50:main.c        ****         case 4:
 183              		.loc 1 50 0
 184 002c 08BD     		pop	{r3, pc}
 185              	.L16:
  53:main.c        ****             break;
 186              		.loc 1 53 0
 187 002e 6FF0C700 		mvn	r0, #199
 188 0032 FFF7FEFF 		bl	moveElevation
 189              	.LVL17:
  54:main.c        ****         case 7:
 190              		.loc 1 54 0
 191 0036 08BD     		pop	{r3, pc}
 192              	.L17:
  56:main.c        ****             break;
 193              		.loc 1 56 0
 194 0038 FFF7FEFF 		bl	goHome
 195              	.LVL18:
 196              	.L10:
 197 003c 08BD     		pop	{r3, pc}
 198              		.cfi_endproc
 199              	.LFE66:
 200              		.size	manualAction, .-manualAction
 201 003e 00BF     		.section	.text.SPI_RX_HANDLER,"ax",%progbits
 202              		.align	2
 203              		.global	SPI_RX_HANDLER
 204              		.thumb
 205              		.thumb_func
 206              		.type	SPI_RX_HANDLER, %function
 207              	SPI_RX_HANDLER:
 208              	.LFB67:
  65:main.c        ****     if (SPIS_1_GetRxBufferSize() == 0) {
 209              		.loc 1 65 0
 210              		.cfi_startproc
 211              		@ args = 0, pretend = 0, frame = 64
 212              		@ frame_needed = 0, uses_anonymous_args = 0
 213 0000 10B5     		push	{r4, lr}
 214              		.cfi_def_cfa_offset 8
 215              		.cfi_offset 4, -8
 216              		.cfi_offset 14, -4
ARM GAS  C:\Users\madse\AppData\Local\Temp\ccryAq5T.s 			page 7


 217 0002 90B0     		sub	sp, sp, #64
 218              		.cfi_def_cfa_offset 72
  66:main.c        ****         return;
 219              		.loc 1 66 0
 220 0004 FFF7FEFF 		bl	SPIS_1_GetRxBufferSize
 221              	.LVL19:
 222 0008 00B3     		cbz	r0, .L19
  71:main.c        ****     
 223              		.loc 1 71 0
 224 000a FFF7FEFF 		bl	SPIS_1_ReadRxData
 225              	.LVL20:
 226 000e 0446     		mov	r4, r0
 227              	.LVL21:
  74:main.c        ****     UART_1_PutString(buff);
 228              		.loc 1 74 0
 229 0010 0346     		mov	r3, r0
 230 0012 0F4A     		ldr	r2, .L28
 231 0014 4021     		movs	r1, #64
 232 0016 6846     		mov	r0, sp
 233              	.LVL22:
 234 0018 FFF7FEFF 		bl	snprintf
 235              	.LVL23:
  75:main.c        ****     
 236              		.loc 1 75 0
 237 001c 6846     		mov	r0, sp
 238 001e FFF7FEFF 		bl	UART_1_PutString
 239              	.LVL24:
  77:main.c        ****     {
 240              		.loc 1 77 0
 241 0022 0A2C     		cmp	r4, #10
 242 0024 02D0     		beq	.L22
 243 0026 0B2C     		cmp	r4, #11
 244 0028 03D0     		beq	.L23
 245 002a 05E0     		b	.L21
 246              	.L22:
  80:main.c        ****         case 11:
 247              		.loc 1 80 0
 248 002c 0122     		movs	r2, #1
 249 002e 094B     		ldr	r3, .L28+4
 250 0030 1A70     		strb	r2, [r3]
 251              	.L23:
  82:main.c        ****         default:
 252              		.loc 1 82 0
 253 0032 0022     		movs	r2, #0
 254 0034 074B     		ldr	r3, .L28+4
 255 0036 1A70     		strb	r2, [r3]
 256              	.L21:
  87:main.c        ****         case AUTOMATIC:
 257              		.loc 1 87 0
 258 0038 064B     		ldr	r3, .L28+4
 259 003a 1B78     		ldrb	r3, [r3]	@ zero_extendqisi2
 260 003c DBB2     		uxtb	r3, r3
 261 003e 012B     		cmp	r3, #1
 262 0040 02D1     		bne	.L24
  92:main.c        ****             break;    
 263              		.loc 1 92 0
 264 0042 2046     		mov	r0, r4
ARM GAS  C:\Users\madse\AppData\Local\Temp\ccryAq5T.s 			page 8


 265 0044 FFF7FEFF 		bl	manualAction
 266              	.LVL25:
 267              	.L24:
  96:main.c        **** }
 268              		.loc 1 96 0
 269 0048 FFF7FEFF 		bl	MOTOR_STEP
 270              	.LVL26:
 271              	.L19:
  97:main.c        **** 
 272              		.loc 1 97 0
 273 004c 10B0     		add	sp, sp, #64
 274              		.cfi_def_cfa_offset 8
 275              		@ sp needed
 276 004e 10BD     		pop	{r4, pc}
 277              	.L29:
 278              		.align	2
 279              	.L28:
 280 0050 08000000 		.word	.LC1
 281 0054 00000000 		.word	.LANCHOR0
 282              		.cfi_endproc
 283              	.LFE67:
 284              		.size	SPI_RX_HANDLER, .-SPI_RX_HANDLER
 285              		.section	.text.main,"ax",%progbits
 286              		.align	2
 287              		.global	main
 288              		.thumb
 289              		.thumb_func
 290              		.type	main, %function
 291              	main:
 292              	.LFB69:
 102:main.c        **** }
 103:main.c        **** 
 104:main.c        **** int main(void)
 105:main.c        **** {
 293              		.loc 1 105 0
 294              		.cfi_startproc
 295              		@ args = 0, pretend = 0, frame = 0
 296              		@ frame_needed = 0, uses_anonymous_args = 0
 297 0000 F8B5     		push	{r3, r4, r5, r6, r7, lr}
 298              		.cfi_def_cfa_offset 24
 299              		.cfi_offset 3, -24
 300              		.cfi_offset 4, -20
 301              		.cfi_offset 5, -16
 302              		.cfi_offset 6, -12
 303              		.cfi_offset 7, -8
 304              		.cfi_offset 14, -4
 106:main.c        ****     CyGlobalIntEnable;
 305              		.loc 1 106 0
 306              		.syntax unified
 307              	@ 106 "main.c" 1
 308 0002 62B6     		CPSIE   i
 309              	@ 0 "" 2
 107:main.c        ****     UART_1_Start();
 310              		.loc 1 107 0
 311              		.thumb
 312              		.syntax unified
 313 0004 FFF7FEFF 		bl	UART_1_Start
ARM GAS  C:\Users\madse\AppData\Local\Temp\ccryAq5T.s 			page 9


 314              	.LVL27:
 108:main.c        ****     ADC_SAR_1_Start();
 315              		.loc 1 108 0
 316 0008 FFF7FEFF 		bl	ADC_SAR_1_Start
 317              	.LVL28:
 109:main.c        ****     ADC_SAR_1_StartConvert();
 318              		.loc 1 109 0
 319 000c FFF7FEFF 		bl	ADC_SAR_1_StartConvert
 320              	.LVL29:
 110:main.c        ****     ADC_SAR_2_Start();
 321              		.loc 1 110 0
 322 0010 FFF7FEFF 		bl	ADC_SAR_2_Start
 323              	.LVL30:
 111:main.c        ****     ADC_SAR_2_StartConvert();
 324              		.loc 1 111 0
 325 0014 FFF7FEFF 		bl	ADC_SAR_2_StartConvert
 326              	.LVL31:
 112:main.c        ****     isr_motor_StartEx(MOTOR_STEP);
 327              		.loc 1 112 0
 328 0018 2748     		ldr	r0, .L33
 329 001a FFF7FEFF 		bl	isr_motor_StartEx
 330              	.LVL32:
 113:main.c        ****     UART_1_PutString("WAM!\r\n");
 331              		.loc 1 113 0
 332 001e 2748     		ldr	r0, .L33+4
 333 0020 FFF7FEFF 		bl	UART_1_PutString
 334              	.LVL33:
 114:main.c        ****     Timer_1_Start();
 335              		.loc 1 114 0
 336 0024 FFF7FEFF 		bl	Timer_1_Start
 337              	.LVL34:
 115:main.c        ****     isr_timer_1_sek_StartEx(TIMER_STEP);
 338              		.loc 1 115 0
 339 0028 2548     		ldr	r0, .L33+8
 340 002a FFF7FEFF 		bl	isr_timer_1_sek_StartEx
 341              	.LVL35:
 116:main.c        ****     
 117:main.c        ****     // Start SPI Slave component.
 118:main.c        ****     SPIS_1_Start();
 342              		.loc 1 118 0
 343 002e FFF7FEFF 		bl	SPIS_1_Start
 344              	.LVL36:
 119:main.c        ****     isr_spis_1_rx_StartEx(SPI_RX_HANDLER);
 345              		.loc 1 119 0
 346 0032 2448     		ldr	r0, .L33+12
 347 0034 FFF7FEFF 		bl	isr_spis_1_rx_StartEx
 348              	.LVL37:
 120:main.c        ****     
 121:main.c        ****     goHome();
 349              		.loc 1 121 0
 350 0038 FFF7FEFF 		bl	goHome
 351              	.LVL38:
 352              	.L31:
 353              	.LBB2:
 122:main.c        ****     
 123:main.c        **** 
 124:main.c        ****     int16_t voltage = 0;
ARM GAS  C:\Users\madse\AppData\Local\Temp\ccryAq5T.s 			page 10


 125:main.c        ****     int16_t azimuth = 0;
 126:main.c        ****     int16_t elevation = 0;
 127:main.c        ****     for(;;) 
 128:main.c        ****     {
 129:main.c        ****         SPIS_1_WriteTxData(0xAA);
 354              		.loc 1 129 0 discriminator 1
 355 003c AA20     		movs	r0, #170
 356 003e FFF7FEFF 		bl	SPIS_1_WriteTxData
 357              	.LVL39:
 130:main.c        ****         
 131:main.c        ****         azimuth = getAzimuth();
 358              		.loc 1 131 0 discriminator 1
 359 0042 FFF7FEFF 		bl	getAzimuth
 360              	.LVL40:
 361 0046 0446     		mov	r4, r0
 362              	.LVL41:
 132:main.c        ****         int16_t azimuthUnsigned = (int16_t)azimuth;
 133:main.c        ****         int8_t azimuthHigh = (azimuthUnsigned >> 8) & 0xFF;
 134:main.c        ****         int8_t azimuthLow = azimuthUnsigned & 0xFF;
 135:main.c        ****         SPIS_1_WriteTxData(azimuthHigh);
 363              		.loc 1 135 0 discriminator 1
 364 0048 C0F30720 		ubfx	r0, r0, #8, #8
 365              	.LVL42:
 366 004c FFF7FEFF 		bl	SPIS_1_WriteTxData
 367              	.LVL43:
 136:main.c        ****         SPIS_1_WriteTxData(azimuthLow);
 368              		.loc 1 136 0 discriminator 1
 369 0050 E0B2     		uxtb	r0, r4
 370 0052 FFF7FEFF 		bl	SPIS_1_WriteTxData
 371              	.LVL44:
 137:main.c        ****         
 138:main.c        ****         elevation = getElevation();
 372              		.loc 1 138 0 discriminator 1
 373 0056 FFF7FEFF 		bl	getElevation
 374              	.LVL45:
 375 005a 0446     		mov	r4, r0
 376              	.LVL46:
 139:main.c        ****         int16_t elevationUnsigned = (int16_t)elevation;
 140:main.c        ****         int8_t elevationHigh = (elevationUnsigned >> 8) & 0xFF;
 141:main.c        ****         int8_t elevationLow = elevationUnsigned & 0xFF;
 142:main.c        ****         SPIS_1_WriteTxData(elevationHigh);
 377              		.loc 1 142 0 discriminator 1
 378 005c C0F30720 		ubfx	r0, r0, #8, #8
 379              	.LVL47:
 380 0060 FFF7FEFF 		bl	SPIS_1_WriteTxData
 381              	.LVL48:
 143:main.c        ****         SPIS_1_WriteTxData(elevationLow);
 382              		.loc 1 143 0 discriminator 1
 383 0064 E0B2     		uxtb	r0, r4
 384 0066 FFF7FEFF 		bl	SPIS_1_WriteTxData
 385              	.LVL49:
 144:main.c        ****         
 145:main.c        ****         voltage = voltageDividerToPercent();
 386              		.loc 1 145 0 discriminator 1
 387 006a FFF7FEFF 		bl	voltageDividerToPercent
 388              	.LVL50:
 389 006e 0446     		mov	r4, r0
ARM GAS  C:\Users\madse\AppData\Local\Temp\ccryAq5T.s 			page 11


 390              	.LVL51:
 146:main.c        ****         int16_t voltageUnsigned = (int16_t)voltage;
 147:main.c        ****         int8_t voltageHigh = (voltageUnsigned >> 8) & 0xFF;
 148:main.c        ****         int8_t voltageLow = voltageUnsigned & 0xFF;
 149:main.c        **** 
 150:main.c        ****         SPIS_1_WriteTxData(voltageHigh);
 391              		.loc 1 150 0 discriminator 1
 392 0070 C0F30720 		ubfx	r0, r0, #8, #8
 393              	.LVL52:
 394 0074 FFF7FEFF 		bl	SPIS_1_WriteTxData
 395              	.LVL53:
 151:main.c        ****         SPIS_1_WriteTxData(voltageLow);
 396              		.loc 1 151 0 discriminator 1
 397 0078 E0B2     		uxtb	r0, r4
 398 007a FFF7FEFF 		bl	SPIS_1_WriteTxData
 399              	.LVL54:
 152:main.c        ****         
 153:main.c        ****         int8_t left = sunLeft() ? 1 : 0;
 400              		.loc 1 153 0 discriminator 1
 401 007e FFF7FEFF 		bl	sunLeft
 402              	.LVL55:
 403 0082 0746     		mov	r7, r0
 404              	.LVL56:
 154:main.c        ****         int8_t right = sunRight() ? 1 : 0;
 405              		.loc 1 154 0 discriminator 1
 406 0084 FFF7FEFF 		bl	sunRight
 407              	.LVL57:
 408 0088 0646     		mov	r6, r0
 409              	.LVL58:
 155:main.c        ****         int8_t up = sunUp() ? 1 : 0;
 410              		.loc 1 155 0 discriminator 1
 411 008a FFF7FEFF 		bl	sunUp
 412              	.LVL59:
 413 008e 0546     		mov	r5, r0
 414              	.LVL60:
 156:main.c        ****         int8_t down = sunDown() ? 1 : 0;
 415              		.loc 1 156 0 discriminator 1
 416 0090 FFF7FEFF 		bl	sunDown
 417              	.LVL61:
 418 0094 0446     		mov	r4, r0
 419              	.LVL62:
 157:main.c        ****         SPIS_1_WriteTxData(left);
 420              		.loc 1 157 0 discriminator 1
 421 0096 3846     		mov	r0, r7
 422 0098 FFF7FEFF 		bl	SPIS_1_WriteTxData
 423              	.LVL63:
 158:main.c        ****         SPIS_1_WriteTxData(right);
 424              		.loc 1 158 0 discriminator 1
 425 009c 3046     		mov	r0, r6
 426 009e FFF7FEFF 		bl	SPIS_1_WriteTxData
 427              	.LVL64:
 159:main.c        ****         SPIS_1_WriteTxData(up);
 428              		.loc 1 159 0 discriminator 1
 429 00a2 2846     		mov	r0, r5
 430 00a4 FFF7FEFF 		bl	SPIS_1_WriteTxData
 431              	.LVL65:
 160:main.c        ****         SPIS_1_WriteTxData(down);
ARM GAS  C:\Users\madse\AppData\Local\Temp\ccryAq5T.s 			page 12


 432              		.loc 1 160 0 discriminator 1
 433 00a8 2046     		mov	r0, r4
 434 00aa FFF7FEFF 		bl	SPIS_1_WriteTxData
 435              	.LVL66:
 161:main.c        ****         SPIS_1_WriteTxData(0xBB);
 436              		.loc 1 161 0 discriminator 1
 437 00ae BB20     		movs	r0, #187
 438 00b0 FFF7FEFF 		bl	SPIS_1_WriteTxData
 439              	.LVL67:
 440 00b4 C2E7     		b	.L31
 441              	.L34:
 442 00b6 00BF     		.align	2
 443              	.L33:
 444 00b8 00000000 		.word	MOTOR_STEP
 445 00bc 18000000 		.word	.LC2
 446 00c0 00000000 		.word	TIMER_STEP
 447 00c4 00000000 		.word	SPI_RX_HANDLER
 448              	.LBE2:
 449              		.cfi_endproc
 450              	.LFE69:
 451              		.size	main, .-main
 452              		.global	current_mode
 453              		.section	.rodata.str1.4,"aMS",%progbits,1
 454              		.align	2
 455              	.LC0:
 456 0000 54494D45 		.ascii	"TIMER\015\012\000"
 456      520D0A00 
 457              	.LC1:
 458 0008 44617461 		.ascii	"Data: %i  \015\012\000"
 458      3A202569 
 458      20200D0A 
 458      00
 459 0015 000000   		.space	3
 460              	.LC2:
 461 0018 57414D21 		.ascii	"WAM!\015\012\000"
 461      0D0A00
 462              		.bss
 463              		.set	.LANCHOR0,. + 0
 464              		.type	current_mode, %object
 465              		.size	current_mode, 1
 466              	current_mode:
 467 0000 00       		.space	1
 468              		.text
 469              	.Letext0:
 470              		.file 2 "c:\\program files (x86)\\cypress\\psoc creator\\4.4\\psoc creator\\import\\gnu\\arm\\5.4.
 471              		.file 3 "c:\\program files (x86)\\cypress\\psoc creator\\4.4\\psoc creator\\import\\gnu\\arm\\5.4.
 472              		.file 4 "Generated_Source\\PSoC5/core_cm3.h"
 473              		.file 5 "Generated_Source\\PSoC5/UART_1.h"
 474              		.file 6 "Generated_Source\\PSoC5/Timer_1.h"
 475              		.file 7 "StepperMotorDriver.h"
 476              		.file 8 "Generated_Source\\PSoC5/CyLib.h"
 477              		.file 9 "Generated_Source\\PSoC5/SPIS_1.h"
 478              		.file 10 "c:\\program files (x86)\\cypress\\psoc creator\\4.4\\psoc creator\\import\\gnu\\arm\\5.4
 479              		.file 11 "BatteryDriver.h"
 480              		.file 12 "SensorDriver.h"
 481              		.file 13 "Generated_Source\\PSoC5/ADC_SAR_1.h"
 482              		.file 14 "Generated_Source\\PSoC5/ADC_SAR_2.h"
ARM GAS  C:\Users\madse\AppData\Local\Temp\ccryAq5T.s 			page 13


 483              		.file 15 "Generated_Source\\PSoC5/isr_motor.h"
 484              		.file 16 "Generated_Source\\PSoC5/isr_timer_1_sek.h"
 485              		.file 17 "Generated_Source\\PSoC5/isr_spis_1_rx.h"
 486              		.file 18 "Mode.h"