ARM GAS  C:\Users\madse\AppData\Local\Temp\ccFgaY55.s 			page 1


   1              		.syntax unified
   2              		.cpu cortex-m3
   3              		.fpu softvfp
   4              		.eabi_attribute 20, 1
   5              		.eabi_attribute 21, 1
   6              		.eabi_attribute 23, 3
   7              		.eabi_attribute 24, 1
   8              		.eabi_attribute 25, 1
   9              		.eabi_attribute 26, 1
  10              		.eabi_attribute 30, 1
  11              		.eabi_attribute 34, 1
  12              		.eabi_attribute 18, 4
  13              		.thumb
  14              		.syntax unified
  15              		.file	"SensorDriver.c"
  16              		.text
  17              	.Ltext0:
  18              		.cfi_sections	.debug_frame
  19              		.section	.text.sunLeft,"ax",%progbits
  20              		.align	2
  21              		.global	sunLeft
  22              		.thumb
  23              		.thumb_func
  24              		.type	sunLeft, %function
  25              	sunLeft:
  26              	.LFB63:
  27              		.file 1 "SensorDriver.c"
   1:SensorDriver.c **** #include "SensorDriver.h"
   2:SensorDriver.c **** 
   3:SensorDriver.c **** bool sunLeft()
   4:SensorDriver.c **** {
  28              		.loc 1 4 0
  29              		.cfi_startproc
  30              		@ args = 0, pretend = 0, frame = 0
  31              		@ frame_needed = 0, uses_anonymous_args = 0
  32 0000 08B5     		push	{r3, lr}
  33              		.cfi_def_cfa_offset 8
  34              		.cfi_offset 3, -8
  35              		.cfi_offset 14, -4
   5:SensorDriver.c ****     return !sunLeft_Read();
  36              		.loc 1 5 0
  37 0002 FFF7FEFF 		bl	sunLeft_Read
  38              	.LVL0:
   6:SensorDriver.c **** }
  39              		.loc 1 6 0
  40 0006 B0FA80F0 		clz	r0, r0
  41 000a 4009     		lsrs	r0, r0, #5
  42 000c 08BD     		pop	{r3, pc}
  43              		.cfi_endproc
  44              	.LFE63:
  45              		.size	sunLeft, .-sunLeft
  46 000e 00BF     		.section	.text.sunRight,"ax",%progbits
  47              		.align	2
  48              		.global	sunRight
  49              		.thumb
  50              		.thumb_func
  51              		.type	sunRight, %function
ARM GAS  C:\Users\madse\AppData\Local\Temp\ccFgaY55.s 			page 2


  52              	sunRight:
  53              	.LFB64:
   7:SensorDriver.c **** 
   8:SensorDriver.c **** bool sunRight()
   9:SensorDriver.c **** {
  54              		.loc 1 9 0
  55              		.cfi_startproc
  56              		@ args = 0, pretend = 0, frame = 0
  57              		@ frame_needed = 0, uses_anonymous_args = 0
  58 0000 08B5     		push	{r3, lr}
  59              		.cfi_def_cfa_offset 8
  60              		.cfi_offset 3, -8
  61              		.cfi_offset 14, -4
  10:SensorDriver.c ****     return !sunRight_Read();
  62              		.loc 1 10 0
  63 0002 FFF7FEFF 		bl	sunRight_Read
  64              	.LVL1:
  11:SensorDriver.c **** }
  65              		.loc 1 11 0
  66 0006 B0FA80F0 		clz	r0, r0
  67 000a 4009     		lsrs	r0, r0, #5
  68 000c 08BD     		pop	{r3, pc}
  69              		.cfi_endproc
  70              	.LFE64:
  71              		.size	sunRight, .-sunRight
  72 000e 00BF     		.section	.text.sunUp,"ax",%progbits
  73              		.align	2
  74              		.global	sunUp
  75              		.thumb
  76              		.thumb_func
  77              		.type	sunUp, %function
  78              	sunUp:
  79              	.LFB65:
  12:SensorDriver.c **** 
  13:SensorDriver.c **** bool sunUp()
  14:SensorDriver.c **** {
  80              		.loc 1 14 0
  81              		.cfi_startproc
  82              		@ args = 0, pretend = 0, frame = 0
  83              		@ frame_needed = 0, uses_anonymous_args = 0
  84 0000 08B5     		push	{r3, lr}
  85              		.cfi_def_cfa_offset 8
  86              		.cfi_offset 3, -8
  87              		.cfi_offset 14, -4
  15:SensorDriver.c ****     return !sunUp_Read();
  88              		.loc 1 15 0
  89 0002 FFF7FEFF 		bl	sunUp_Read
  90              	.LVL2:
  16:SensorDriver.c **** }
  91              		.loc 1 16 0
  92 0006 B0FA80F0 		clz	r0, r0
  93 000a 4009     		lsrs	r0, r0, #5
  94 000c 08BD     		pop	{r3, pc}
  95              		.cfi_endproc
  96              	.LFE65:
  97              		.size	sunUp, .-sunUp
  98 000e 00BF     		.section	.text.sunDown,"ax",%progbits
ARM GAS  C:\Users\madse\AppData\Local\Temp\ccFgaY55.s 			page 3


  99              		.align	2
 100              		.global	sunDown
 101              		.thumb
 102              		.thumb_func
 103              		.type	sunDown, %function
 104              	sunDown:
 105              	.LFB66:
  17:SensorDriver.c **** 
  18:SensorDriver.c **** bool sunDown()
  19:SensorDriver.c **** {
 106              		.loc 1 19 0
 107              		.cfi_startproc
 108              		@ args = 0, pretend = 0, frame = 0
 109              		@ frame_needed = 0, uses_anonymous_args = 0
 110 0000 08B5     		push	{r3, lr}
 111              		.cfi_def_cfa_offset 8
 112              		.cfi_offset 3, -8
 113              		.cfi_offset 14, -4
  20:SensorDriver.c ****     return !sunDown_Read();
 114              		.loc 1 20 0
 115 0002 FFF7FEFF 		bl	sunDown_Read
 116              	.LVL3:
  21:SensorDriver.c **** }
 117              		.loc 1 21 0
 118 0006 B0FA80F0 		clz	r0, r0
 119 000a 4009     		lsrs	r0, r0, #5
 120 000c 08BD     		pop	{r3, pc}
 121              		.cfi_endproc
 122              	.LFE66:
 123              		.size	sunDown, .-sunDown
 124 000e 00BF     		.text
 125              	.Letext0:
 126              		.file 2 "c:\\program files (x86)\\cypress\\psoc creator\\4.4\\psoc creator\\import\\gnu\\arm\\5.4.
 127              		.file 3 "c:\\program files (x86)\\cypress\\psoc creator\\4.4\\psoc creator\\import\\gnu\\arm\\5.4.
 128              		.file 4 "Generated_Source\\PSoC5/sunLeft.h"
 129              		.file 5 "Generated_Source\\PSoC5/sunRight.h"
 130              		.file 6 "Generated_Source\\PSoC5/sunUp.h"
 131              		.file 7 "Generated_Source\\PSoC5/sunDown.h"
 132              		.file 8 "Generated_Source\\PSoC5/core_cm3.h"