ARM GAS  C:\Users\degn\AppData\Local\Temp\cc5j1TH9.s 			page 1


   1              		.syntax unified
   2              		.cpu cortex-m3
   3              		.fpu softvfp
   4              		.eabi_attribute 20, 1
   5              		.eabi_attribute 21, 1
   6              		.eabi_attribute 23, 3
   7              		.eabi_attribute 24, 1
   8              		.eabi_attribute 25, 1
   9              		.eabi_attribute 26, 1
  10              		.eabi_attribute 30, 1
  11              		.eabi_attribute 34, 1
  12              		.eabi_attribute 18, 4
  13              		.thumb
  14              		.syntax unified
  15              		.file	"StepperMotorDriver.c"
  16              		.text
  17              	.Ltext0:
  18              		.cfi_sections	.debug_frame
  19              		.section	.text.moveAzimuth,"ax",%progbits
  20              		.align	2
  21              		.global	moveAzimuth
  22              		.thumb
  23              		.thumb_func
  24              		.type	moveAzimuth, %function
  25              	moveAzimuth:
  26              	.LFB64:
  27              		.file 1 "StepperMotorDriver.c"
   1:StepperMotorDriver.c **** /* ========================================
   2:StepperMotorDriver.c ****  *
   3:StepperMotorDriver.c ****  *          Thomas Degn Larsen
   4:StepperMotorDriver.c ****  *
   5:StepperMotorDriver.c ****  * ========================================
   6:StepperMotorDriver.c **** */
   7:StepperMotorDriver.c **** 
   8:StepperMotorDriver.c **** #include "project.h"
   9:StepperMotorDriver.c **** #include "StepperMotorDriver.h"
  10:StepperMotorDriver.c **** #include <stdio.h>
  11:StepperMotorDriver.c **** #define STEPS 8                         // number of steps before repeat (half step = 400 steps pr 
  12:StepperMotorDriver.c **** 
  13:StepperMotorDriver.c **** /******************
  14:StepperMotorDriver.c **** **   Variables   **
  15:StepperMotorDriver.c **** ******************/
  16:StepperMotorDriver.c **** static int stepSequence[STEPS][4] = {   // step sequence for motors
  17:StepperMotorDriver.c ****     {1, 0, 0, 0},                       // step 1
  18:StepperMotorDriver.c ****     {1, 1, 0, 0},                       // step 2
  19:StepperMotorDriver.c ****     {0, 1, 0, 0},                       // step 3
  20:StepperMotorDriver.c ****     {0, 1, 1, 0},                       // step 4
  21:StepperMotorDriver.c ****     {0, 0, 1, 0},                       // step 5
  22:StepperMotorDriver.c ****     {0, 0, 1, 1},                       // step 6
  23:StepperMotorDriver.c ****     {0, 0, 0, 1},                       // step 7
  24:StepperMotorDriver.c ****     {1, 0, 0, 1}                        // step 8
  25:StepperMotorDriver.c **** };
  26:StepperMotorDriver.c **** static int off[4] = {0, 0, 0, 0};       // step used to turn of motors
  27:StepperMotorDriver.c **** static long azimuthSteps = 8000000;     // counting steps for steppermotor moving solar panel horit
  28:StepperMotorDriver.c **** static long elevationSteps = 8000000;   // counting steps for steppermotor moving solar panel verti
  29:StepperMotorDriver.c **** static int aStep = 0;                   // number of steps to be taken with azimuth motor
  30:StepperMotorDriver.c **** static int eStep = 0;                   // number of steps to be taken with elevation motor
ARM GAS  C:\Users\degn\AppData\Local\Temp\cc5j1TH9.s 			page 2


  31:StepperMotorDriver.c **** 
  32:StepperMotorDriver.c **** 
  33:StepperMotorDriver.c **** /******************
  34:StepperMotorDriver.c **** **   Functions   **
  35:StepperMotorDriver.c **** ******************/
  36:StepperMotorDriver.c **** void moveAzimuth(int steps)
  37:StepperMotorDriver.c **** {   // function to set steps to be takben by azimuth motor
  28              		.loc 1 37 0
  29              		.cfi_startproc
  30              		@ args = 0, pretend = 0, frame = 0
  31              		@ frame_needed = 0, uses_anonymous_args = 0
  32              		@ link register save eliminated.
  33              	.LVL0:
  38:StepperMotorDriver.c ****     aStep = steps;
  34              		.loc 1 38 0
  35 0000 014B     		ldr	r3, .L2
  36 0002 1860     		str	r0, [r3]
  37 0004 7047     		bx	lr
  38              	.L3:
  39 0006 00BF     		.align	2
  40              	.L2:
  41 0008 00000000 		.word	.LANCHOR0
  42              		.cfi_endproc
  43              	.LFE64:
  44              		.size	moveAzimuth, .-moveAzimuth
  45              		.section	.text.azimuthStep,"ax",%progbits
  46              		.align	2
  47              		.global	azimuthStep
  48              		.thumb
  49              		.thumb_func
  50              		.type	azimuthStep, %function
  51              	azimuthStep:
  52              	.LFB66:
  39:StepperMotorDriver.c **** }
  40:StepperMotorDriver.c **** 
  41:StepperMotorDriver.c **** int azimuth()
  42:StepperMotorDriver.c **** {   // function to calculate next azimutgh step based and call azimuthStep()
  43:StepperMotorDriver.c ****     if (Azimuth_Pin_1_Read() == 0 && Azimuth_Pin_2_Read() == 0 && Azimuth_Pin_3_Read() == 0 && Azim
  44:StepperMotorDriver.c ****     {   // if the motor is off turn it on, on the same step as last time
  45:StepperMotorDriver.c ****         azimuthStep(stepSequence[azimuthSteps % STEPS]);
  46:StepperMotorDriver.c ****         return 0;
  47:StepperMotorDriver.c ****     }
  48:StepperMotorDriver.c ****     if (aStep > 0)
  49:StepperMotorDriver.c ****     {   // turning right (positiv steps)
  50:StepperMotorDriver.c ****         if (Limit_Right_Read()) // ! when implemented *********************************************
  51:StepperMotorDriver.c ****         {   // if limit is reached, don't move
  52:StepperMotorDriver.c ****             aStep = 0;
  53:StepperMotorDriver.c ****             return 0;
  54:StepperMotorDriver.c ****         }
  55:StepperMotorDriver.c ****         // set azimuth motor pins to next step and decrease steps to be taken
  56:StepperMotorDriver.c ****         azimuthStep(stepSequence[++azimuthSteps % STEPS]);
  57:StepperMotorDriver.c ****         aStep = aStep - 1;
  58:StepperMotorDriver.c ****         return 1;
  59:StepperMotorDriver.c ****     }
  60:StepperMotorDriver.c ****     else if (aStep < 0)
  61:StepperMotorDriver.c ****     {    // turning left (negativ steps)
  62:StepperMotorDriver.c ****         if (Limit_Left_Read()) // ! when implemented **********************************************
ARM GAS  C:\Users\degn\AppData\Local\Temp\cc5j1TH9.s 			page 3


  63:StepperMotorDriver.c ****         {   // if limit is reached, don't move
  64:StepperMotorDriver.c ****             aStep = 0;
  65:StepperMotorDriver.c ****             return 0;
  66:StepperMotorDriver.c ****         }
  67:StepperMotorDriver.c ****         // set azimuth motor pins to next step and decrease steps to be taken
  68:StepperMotorDriver.c ****         azimuthStep(stepSequence[--azimuthSteps % STEPS]);
  69:StepperMotorDriver.c ****         aStep = aStep + 1;
  70:StepperMotorDriver.c ****         return 1;
  71:StepperMotorDriver.c ****     }
  72:StepperMotorDriver.c ****     return -1;
  73:StepperMotorDriver.c **** }
  74:StepperMotorDriver.c **** 
  75:StepperMotorDriver.c **** void azimuthStep(int sequence[4])
  76:StepperMotorDriver.c **** {   // function to write sequence to azimuth motor pins
  53              		.loc 1 76 0
  54              		.cfi_startproc
  55              		@ args = 0, pretend = 0, frame = 0
  56              		@ frame_needed = 0, uses_anonymous_args = 0
  57              	.LVL1:
  58 0000 10B5     		push	{r4, lr}
  59              		.cfi_def_cfa_offset 8
  60              		.cfi_offset 4, -8
  61              		.cfi_offset 14, -4
  62 0002 0446     		mov	r4, r0
  77:StepperMotorDriver.c ****     Azimuth_Pin_1_Write(sequence[0]);
  63              		.loc 1 77 0
  64 0004 0078     		ldrb	r0, [r0]	@ zero_extendqisi2
  65              	.LVL2:
  66 0006 FFF7FEFF 		bl	Azimuth_Pin_1_Write
  67              	.LVL3:
  78:StepperMotorDriver.c ****     Azimuth_Pin_2_Write(sequence[1]);
  68              		.loc 1 78 0
  69 000a 2079     		ldrb	r0, [r4, #4]	@ zero_extendqisi2
  70 000c FFF7FEFF 		bl	Azimuth_Pin_2_Write
  71              	.LVL4:
  79:StepperMotorDriver.c ****     Azimuth_Pin_3_Write(sequence[2]);
  72              		.loc 1 79 0
  73 0010 207A     		ldrb	r0, [r4, #8]	@ zero_extendqisi2
  74 0012 FFF7FEFF 		bl	Azimuth_Pin_3_Write
  75              	.LVL5:
  80:StepperMotorDriver.c ****     Azimuth_Pin_4_Write(sequence[3]);
  76              		.loc 1 80 0
  77 0016 207B     		ldrb	r0, [r4, #12]	@ zero_extendqisi2
  78 0018 FFF7FEFF 		bl	Azimuth_Pin_4_Write
  79              	.LVL6:
  80 001c 10BD     		pop	{r4, pc}
  81              		.cfi_endproc
  82              	.LFE66:
  83              		.size	azimuthStep, .-azimuthStep
  84 001e 00BF     		.section	.text.azimuth,"ax",%progbits
  85              		.align	2
  86              		.global	azimuth
  87              		.thumb
  88              		.thumb_func
  89              		.type	azimuth, %function
  90              	azimuth:
  91              	.LFB65:
ARM GAS  C:\Users\degn\AppData\Local\Temp\cc5j1TH9.s 			page 4


  42:StepperMotorDriver.c ****     if (Azimuth_Pin_1_Read() == 0 && Azimuth_Pin_2_Read() == 0 && Azimuth_Pin_3_Read() == 0 && Azim
  92              		.loc 1 42 0
  93              		.cfi_startproc
  94              		@ args = 0, pretend = 0, frame = 0
  95              		@ frame_needed = 0, uses_anonymous_args = 0
  96 0000 08B5     		push	{r3, lr}
  97              		.cfi_def_cfa_offset 8
  98              		.cfi_offset 3, -8
  99              		.cfi_offset 14, -4
  43:StepperMotorDriver.c ****     {   // if the motor is off turn it on, on the same step as last time
 100              		.loc 1 43 0
 101 0002 FFF7FEFF 		bl	Azimuth_Pin_1_Read
 102              	.LVL7:
 103 0006 C0B9     		cbnz	r0, .L7
  43:StepperMotorDriver.c ****     {   // if the motor is off turn it on, on the same step as last time
 104              		.loc 1 43 0 is_stmt 0 discriminator 1
 105 0008 FFF7FEFF 		bl	Azimuth_Pin_2_Read
 106              	.LVL8:
 107 000c A8B9     		cbnz	r0, .L7
  43:StepperMotorDriver.c ****     {   // if the motor is off turn it on, on the same step as last time
 108              		.loc 1 43 0 discriminator 2
 109 000e FFF7FEFF 		bl	Azimuth_Pin_3_Read
 110              	.LVL9:
 111 0012 90B9     		cbnz	r0, .L7
  43:StepperMotorDriver.c ****     {   // if the motor is off turn it on, on the same step as last time
 112              		.loc 1 43 0 discriminator 3
 113 0014 FFF7FEFF 		bl	Azimuth_Pin_4_Read
 114              	.LVL10:
 115 0018 78B9     		cbnz	r0, .L7
  45:StepperMotorDriver.c ****         return 0;
 116              		.loc 1 45 0 is_stmt 1
 117 001a 294B     		ldr	r3, .L17
 118 001c 1B68     		ldr	r3, [r3]
 119 001e 294A     		ldr	r2, .L17+4
 120 0020 1340     		ands	r3, r3, r2
 121 0022 03D5     		bpl	.L8
 122 0024 013B     		subs	r3, r3, #1
 123 0026 63F00703 		orn	r3, r3, #7
 124 002a 0133     		adds	r3, r3, #1
 125              	.L8:
 126 002c 2648     		ldr	r0, .L17+8
 127 002e 00EB0310 		add	r0, r0, r3, lsl #4
 128 0032 FFF7FEFF 		bl	azimuthStep
 129              	.LVL11:
  46:StepperMotorDriver.c ****     }
 130              		.loc 1 46 0
 131 0036 0020     		movs	r0, #0
 132 0038 08BD     		pop	{r3, pc}
 133              	.L7:
  48:StepperMotorDriver.c ****     {   // turning right (positiv steps)
 134              		.loc 1 48 0
 135 003a 244B     		ldr	r3, .L17+12
 136 003c 1B68     		ldr	r3, [r3]
 137 003e 002B     		cmp	r3, #0
 138 0040 1CDD     		ble	.L10
  50:StepperMotorDriver.c ****         {   // if limit is reached, don't move
 139              		.loc 1 50 0
ARM GAS  C:\Users\degn\AppData\Local\Temp\cc5j1TH9.s 			page 5


 140 0042 FFF7FEFF 		bl	Limit_Right_Read
 141              	.LVL12:
 142 0046 18B1     		cbz	r0, .L11
  52:StepperMotorDriver.c ****             return 0;
 143              		.loc 1 52 0
 144 0048 0020     		movs	r0, #0
 145 004a 204B     		ldr	r3, .L17+12
 146 004c 1860     		str	r0, [r3]
  53:StepperMotorDriver.c ****         }
 147              		.loc 1 53 0
 148 004e 08BD     		pop	{r3, pc}
 149              	.L11:
  56:StepperMotorDriver.c ****         aStep = aStep - 1;
 150              		.loc 1 56 0
 151 0050 1B4A     		ldr	r2, .L17
 152 0052 1368     		ldr	r3, [r2]
 153 0054 0133     		adds	r3, r3, #1
 154 0056 1360     		str	r3, [r2]
 155 0058 1A48     		ldr	r0, .L17+4
 156 005a 0340     		ands	r3, r3, r0
 157 005c 03D5     		bpl	.L12
 158 005e 013B     		subs	r3, r3, #1
 159 0060 63F00703 		orn	r3, r3, #7
 160 0064 0133     		adds	r3, r3, #1
 161              	.L12:
 162 0066 1848     		ldr	r0, .L17+8
 163 0068 00EB0310 		add	r0, r0, r3, lsl #4
 164 006c FFF7FEFF 		bl	azimuthStep
 165              	.LVL13:
  57:StepperMotorDriver.c ****         return 1;
 166              		.loc 1 57 0
 167 0070 164A     		ldr	r2, .L17+12
 168 0072 1368     		ldr	r3, [r2]
 169 0074 013B     		subs	r3, r3, #1
 170 0076 1360     		str	r3, [r2]
  58:StepperMotorDriver.c ****     }
 171              		.loc 1 58 0
 172 0078 0120     		movs	r0, #1
 173 007a 08BD     		pop	{r3, pc}
 174              	.L10:
  60:StepperMotorDriver.c ****     {    // turning left (negativ steps)
 175              		.loc 1 60 0
 176 007c 002B     		cmp	r3, #0
 177 007e 1CDA     		bge	.L15
  62:StepperMotorDriver.c ****         {   // if limit is reached, don't move
 178              		.loc 1 62 0
 179 0080 FFF7FEFF 		bl	Limit_Left_Read
 180              	.LVL14:
 181 0084 18B1     		cbz	r0, .L13
  64:StepperMotorDriver.c ****             return 0;
 182              		.loc 1 64 0
 183 0086 0020     		movs	r0, #0
 184 0088 104B     		ldr	r3, .L17+12
 185 008a 1860     		str	r0, [r3]
  65:StepperMotorDriver.c ****         }
 186              		.loc 1 65 0
 187 008c 08BD     		pop	{r3, pc}
ARM GAS  C:\Users\degn\AppData\Local\Temp\cc5j1TH9.s 			page 6


 188              	.L13:
  68:StepperMotorDriver.c ****         aStep = aStep + 1;
 189              		.loc 1 68 0
 190 008e 0C4A     		ldr	r2, .L17
 191 0090 1368     		ldr	r3, [r2]
 192 0092 013B     		subs	r3, r3, #1
 193 0094 1360     		str	r3, [r2]
 194 0096 0B48     		ldr	r0, .L17+4
 195 0098 0340     		ands	r3, r3, r0
 196 009a 03D5     		bpl	.L14
 197 009c 013B     		subs	r3, r3, #1
 198 009e 63F00703 		orn	r3, r3, #7
 199 00a2 0133     		adds	r3, r3, #1
 200              	.L14:
 201 00a4 0848     		ldr	r0, .L17+8
 202 00a6 00EB0310 		add	r0, r0, r3, lsl #4
 203 00aa FFF7FEFF 		bl	azimuthStep
 204              	.LVL15:
  69:StepperMotorDriver.c ****         return 1;
 205              		.loc 1 69 0
 206 00ae 074A     		ldr	r2, .L17+12
 207 00b0 1368     		ldr	r3, [r2]
 208 00b2 0133     		adds	r3, r3, #1
 209 00b4 1360     		str	r3, [r2]
  70:StepperMotorDriver.c ****     }
 210              		.loc 1 70 0
 211 00b6 0120     		movs	r0, #1
 212 00b8 08BD     		pop	{r3, pc}
 213              	.L15:
  72:StepperMotorDriver.c **** }
 214              		.loc 1 72 0
 215 00ba 4FF0FF30 		mov	r0, #-1
  73:StepperMotorDriver.c **** 
 216              		.loc 1 73 0
 217 00be 08BD     		pop	{r3, pc}
 218              	.L18:
 219              		.align	2
 220              	.L17:
 221 00c0 00000000 		.word	.LANCHOR1
 222 00c4 07000080 		.word	-2147483641
 223 00c8 04000000 		.word	.LANCHOR1+4
 224 00cc 00000000 		.word	.LANCHOR0
 225              		.cfi_endproc
 226              	.LFE65:
 227              		.size	azimuth, .-azimuth
 228              		.section	.text.moveElevation,"ax",%progbits
 229              		.align	2
 230              		.global	moveElevation
 231              		.thumb
 232              		.thumb_func
 233              		.type	moveElevation, %function
 234              	moveElevation:
 235              	.LFB67:
  81:StepperMotorDriver.c **** }
  82:StepperMotorDriver.c **** 
  83:StepperMotorDriver.c **** 
  84:StepperMotorDriver.c **** void moveElevation(int steps)
ARM GAS  C:\Users\degn\AppData\Local\Temp\cc5j1TH9.s 			page 7


  85:StepperMotorDriver.c **** {   // function to set steps to be takben by elevation motor
 236              		.loc 1 85 0
 237              		.cfi_startproc
 238              		@ args = 0, pretend = 0, frame = 0
 239              		@ frame_needed = 0, uses_anonymous_args = 0
 240              		@ link register save eliminated.
 241              	.LVL16:
  86:StepperMotorDriver.c ****     eStep = steps;
 242              		.loc 1 86 0
 243 0000 014B     		ldr	r3, .L20
 244 0002 5860     		str	r0, [r3, #4]
 245 0004 7047     		bx	lr
 246              	.L21:
 247 0006 00BF     		.align	2
 248              	.L20:
 249 0008 00000000 		.word	.LANCHOR0
 250              		.cfi_endproc
 251              	.LFE67:
 252              		.size	moveElevation, .-moveElevation
 253              		.section	.text.elevationStep,"ax",%progbits
 254              		.align	2
 255              		.global	elevationStep
 256              		.thumb
 257              		.thumb_func
 258              		.type	elevationStep, %function
 259              	elevationStep:
 260              	.LFB69:
  87:StepperMotorDriver.c **** }
  88:StepperMotorDriver.c **** 
  89:StepperMotorDriver.c **** int elevation()
  90:StepperMotorDriver.c **** {   // function to calculate next elevation step based and call elevationStep()
  91:StepperMotorDriver.c ****     if (Elevation_Pin_1_Read() == 0 && Elevation_Pin_2_Read() == 0 && Elevation_Pin_3_Read() == 0 &
  92:StepperMotorDriver.c ****     {   // if the motor is off turn it on, on the same step as last time
  93:StepperMotorDriver.c ****         elevationStep(stepSequence[elevationSteps % STEPS]);
  94:StepperMotorDriver.c ****         return 0;
  95:StepperMotorDriver.c ****     }
  96:StepperMotorDriver.c ****     if (eStep > 0)
  97:StepperMotorDriver.c ****     {   // turning up (positiv steps)
  98:StepperMotorDriver.c ****         if (Limit_Up_Read()) // ! when implemented ************************************************
  99:StepperMotorDriver.c ****         {   // if limit is reached, don't move
 100:StepperMotorDriver.c ****             eStep = 0;
 101:StepperMotorDriver.c ****             return 0;
 102:StepperMotorDriver.c ****         }
 103:StepperMotorDriver.c ****         // set elevation motor pins to next step and decrease steps to be taken
 104:StepperMotorDriver.c ****         elevationStep(stepSequence[++elevationSteps % STEPS]);
 105:StepperMotorDriver.c ****         eStep = eStep - 1;
 106:StepperMotorDriver.c ****         return 1;
 107:StepperMotorDriver.c ****     }
 108:StepperMotorDriver.c ****     
 109:StepperMotorDriver.c ****     else if (eStep < 0)
 110:StepperMotorDriver.c ****     {   // turning down (negativ steps)
 111:StepperMotorDriver.c ****         if (Limit_Down_Read()) // ! when implemented **********************************************
 112:StepperMotorDriver.c ****         {   // if limit is reached, don't move
 113:StepperMotorDriver.c ****             eStep = 0;
 114:StepperMotorDriver.c ****             return 0;
 115:StepperMotorDriver.c ****         }
 116:StepperMotorDriver.c ****         // set elevation motor pins to next step and decrease steps to be taken
ARM GAS  C:\Users\degn\AppData\Local\Temp\cc5j1TH9.s 			page 8


 117:StepperMotorDriver.c ****         elevationStep(stepSequence[--elevationSteps % STEPS]);
 118:StepperMotorDriver.c ****         eStep = eStep + 1;
 119:StepperMotorDriver.c ****         return 1;
 120:StepperMotorDriver.c ****     }
 121:StepperMotorDriver.c ****     return -1;
 122:StepperMotorDriver.c **** }
 123:StepperMotorDriver.c **** 
 124:StepperMotorDriver.c **** void elevationStep(int sequence[4])
 125:StepperMotorDriver.c **** {   // function to write sequence to elevation motor pins
 261              		.loc 1 125 0
 262              		.cfi_startproc
 263              		@ args = 0, pretend = 0, frame = 0
 264              		@ frame_needed = 0, uses_anonymous_args = 0
 265              	.LVL17:
 266 0000 10B5     		push	{r4, lr}
 267              		.cfi_def_cfa_offset 8
 268              		.cfi_offset 4, -8
 269              		.cfi_offset 14, -4
 270 0002 0446     		mov	r4, r0
 126:StepperMotorDriver.c ****     Elevation_Pin_1_Write(sequence[0]);
 271              		.loc 1 126 0
 272 0004 0078     		ldrb	r0, [r0]	@ zero_extendqisi2
 273              	.LVL18:
 274 0006 FFF7FEFF 		bl	Elevation_Pin_1_Write
 275              	.LVL19:
 127:StepperMotorDriver.c ****     Elevation_Pin_2_Write(sequence[1]);
 276              		.loc 1 127 0
 277 000a 2079     		ldrb	r0, [r4, #4]	@ zero_extendqisi2
 278 000c FFF7FEFF 		bl	Elevation_Pin_2_Write
 279              	.LVL20:
 128:StepperMotorDriver.c ****     Elevation_Pin_3_Write(sequence[2]);
 280              		.loc 1 128 0
 281 0010 207A     		ldrb	r0, [r4, #8]	@ zero_extendqisi2
 282 0012 FFF7FEFF 		bl	Elevation_Pin_3_Write
 283              	.LVL21:
 129:StepperMotorDriver.c ****     Elevation_Pin_4_Write(sequence[3]);
 284              		.loc 1 129 0
 285 0016 207B     		ldrb	r0, [r4, #12]	@ zero_extendqisi2
 286 0018 FFF7FEFF 		bl	Elevation_Pin_4_Write
 287              	.LVL22:
 288 001c 10BD     		pop	{r4, pc}
 289              		.cfi_endproc
 290              	.LFE69:
 291              		.size	elevationStep, .-elevationStep
 292 001e 00BF     		.section	.text.elevation,"ax",%progbits
 293              		.align	2
 294              		.global	elevation
 295              		.thumb
 296              		.thumb_func
 297              		.type	elevation, %function
 298              	elevation:
 299              	.LFB68:
  90:StepperMotorDriver.c ****     if (Elevation_Pin_1_Read() == 0 && Elevation_Pin_2_Read() == 0 && Elevation_Pin_3_Read() == 0 &
 300              		.loc 1 90 0
 301              		.cfi_startproc
 302              		@ args = 0, pretend = 0, frame = 0
 303              		@ frame_needed = 0, uses_anonymous_args = 0
ARM GAS  C:\Users\degn\AppData\Local\Temp\cc5j1TH9.s 			page 9


 304 0000 08B5     		push	{r3, lr}
 305              		.cfi_def_cfa_offset 8
 306              		.cfi_offset 3, -8
 307              		.cfi_offset 14, -4
  91:StepperMotorDriver.c ****     {   // if the motor is off turn it on, on the same step as last time
 308              		.loc 1 91 0
 309 0002 FFF7FEFF 		bl	Elevation_Pin_1_Read
 310              	.LVL23:
 311 0006 C8B9     		cbnz	r0, .L25
  91:StepperMotorDriver.c ****     {   // if the motor is off turn it on, on the same step as last time
 312              		.loc 1 91 0 is_stmt 0 discriminator 1
 313 0008 FFF7FEFF 		bl	Elevation_Pin_2_Read
 314              	.LVL24:
 315 000c B0B9     		cbnz	r0, .L25
  91:StepperMotorDriver.c ****     {   // if the motor is off turn it on, on the same step as last time
 316              		.loc 1 91 0 discriminator 2
 317 000e FFF7FEFF 		bl	Elevation_Pin_3_Read
 318              	.LVL25:
 319 0012 98B9     		cbnz	r0, .L25
  91:StepperMotorDriver.c ****     {   // if the motor is off turn it on, on the same step as last time
 320              		.loc 1 91 0 discriminator 3
 321 0014 FFF7FEFF 		bl	Elevation_Pin_4_Read
 322              	.LVL26:
 323 0018 80B9     		cbnz	r0, .L25
  93:StepperMotorDriver.c ****         return 0;
 324              		.loc 1 93 0 is_stmt 1
 325 001a 2C4B     		ldr	r3, .L35
 326 001c D3F88430 		ldr	r3, [r3, #132]
 327 0020 2B4A     		ldr	r2, .L35+4
 328 0022 1340     		ands	r3, r3, r2
 329 0024 03D5     		bpl	.L26
 330 0026 013B     		subs	r3, r3, #1
 331 0028 63F00703 		orn	r3, r3, #7
 332 002c 0133     		adds	r3, r3, #1
 333              	.L26:
 334 002e 2948     		ldr	r0, .L35+8
 335 0030 00EB0310 		add	r0, r0, r3, lsl #4
 336 0034 FFF7FEFF 		bl	elevationStep
 337              	.LVL27:
  94:StepperMotorDriver.c ****     }
 338              		.loc 1 94 0
 339 0038 0020     		movs	r0, #0
 340 003a 08BD     		pop	{r3, pc}
 341              	.L25:
  96:StepperMotorDriver.c ****     {   // turning up (positiv steps)
 342              		.loc 1 96 0
 343 003c 264B     		ldr	r3, .L35+12
 344 003e 5B68     		ldr	r3, [r3, #4]
 345 0040 002B     		cmp	r3, #0
 346 0042 1EDD     		ble	.L28
  98:StepperMotorDriver.c ****         {   // if limit is reached, don't move
 347              		.loc 1 98 0
 348 0044 FFF7FEFF 		bl	Limit_Up_Read
 349              	.LVL28:
 350 0048 18B1     		cbz	r0, .L29
 100:StepperMotorDriver.c ****             return 0;
 351              		.loc 1 100 0
ARM GAS  C:\Users\degn\AppData\Local\Temp\cc5j1TH9.s 			page 10


 352 004a 0020     		movs	r0, #0
 353 004c 224B     		ldr	r3, .L35+12
 354 004e 5860     		str	r0, [r3, #4]
 101:StepperMotorDriver.c ****         }
 355              		.loc 1 101 0
 356 0050 08BD     		pop	{r3, pc}
 357              	.L29:
 104:StepperMotorDriver.c ****         eStep = eStep - 1;
 358              		.loc 1 104 0
 359 0052 1E4A     		ldr	r2, .L35
 360 0054 D2F88430 		ldr	r3, [r2, #132]
 361 0058 0133     		adds	r3, r3, #1
 362 005a C2F88430 		str	r3, [r2, #132]
 363 005e 1C48     		ldr	r0, .L35+4
 364 0060 0340     		ands	r3, r3, r0
 365 0062 03D5     		bpl	.L30
 366 0064 013B     		subs	r3, r3, #1
 367 0066 63F00703 		orn	r3, r3, #7
 368 006a 0133     		adds	r3, r3, #1
 369              	.L30:
 370 006c 1948     		ldr	r0, .L35+8
 371 006e 00EB0310 		add	r0, r0, r3, lsl #4
 372 0072 FFF7FEFF 		bl	elevationStep
 373              	.LVL29:
 105:StepperMotorDriver.c ****         return 1;
 374              		.loc 1 105 0
 375 0076 184A     		ldr	r2, .L35+12
 376 0078 5368     		ldr	r3, [r2, #4]
 377 007a 013B     		subs	r3, r3, #1
 378 007c 5360     		str	r3, [r2, #4]
 106:StepperMotorDriver.c ****     }
 379              		.loc 1 106 0
 380 007e 0120     		movs	r0, #1
 381 0080 08BD     		pop	{r3, pc}
 382              	.L28:
 109:StepperMotorDriver.c ****     {   // turning down (negativ steps)
 383              		.loc 1 109 0
 384 0082 002B     		cmp	r3, #0
 385 0084 1EDA     		bge	.L33
 111:StepperMotorDriver.c ****         {   // if limit is reached, don't move
 386              		.loc 1 111 0
 387 0086 FFF7FEFF 		bl	Limit_Down_Read
 388              	.LVL30:
 389 008a 18B1     		cbz	r0, .L31
 113:StepperMotorDriver.c ****             return 0;
 390              		.loc 1 113 0
 391 008c 0020     		movs	r0, #0
 392 008e 124B     		ldr	r3, .L35+12
 393 0090 5860     		str	r0, [r3, #4]
 114:StepperMotorDriver.c ****         }
 394              		.loc 1 114 0
 395 0092 08BD     		pop	{r3, pc}
 396              	.L31:
 117:StepperMotorDriver.c ****         eStep = eStep + 1;
 397              		.loc 1 117 0
 398 0094 0D4A     		ldr	r2, .L35
 399 0096 D2F88430 		ldr	r3, [r2, #132]
ARM GAS  C:\Users\degn\AppData\Local\Temp\cc5j1TH9.s 			page 11


 400 009a 013B     		subs	r3, r3, #1
 401 009c C2F88430 		str	r3, [r2, #132]
 402 00a0 0B48     		ldr	r0, .L35+4
 403 00a2 0340     		ands	r3, r3, r0
 404 00a4 03D5     		bpl	.L32
 405 00a6 013B     		subs	r3, r3, #1
 406 00a8 63F00703 		orn	r3, r3, #7
 407 00ac 0133     		adds	r3, r3, #1
 408              	.L32:
 409 00ae 0948     		ldr	r0, .L35+8
 410 00b0 00EB0310 		add	r0, r0, r3, lsl #4
 411 00b4 FFF7FEFF 		bl	elevationStep
 412              	.LVL31:
 118:StepperMotorDriver.c ****         return 1;
 413              		.loc 1 118 0
 414 00b8 074A     		ldr	r2, .L35+12
 415 00ba 5368     		ldr	r3, [r2, #4]
 416 00bc 0133     		adds	r3, r3, #1
 417 00be 5360     		str	r3, [r2, #4]
 119:StepperMotorDriver.c ****     }
 418              		.loc 1 119 0
 419 00c0 0120     		movs	r0, #1
 420 00c2 08BD     		pop	{r3, pc}
 421              	.L33:
 121:StepperMotorDriver.c **** }
 422              		.loc 1 121 0
 423 00c4 4FF0FF30 		mov	r0, #-1
 122:StepperMotorDriver.c **** 
 424              		.loc 1 122 0
 425 00c8 08BD     		pop	{r3, pc}
 426              	.L36:
 427 00ca 00BF     		.align	2
 428              	.L35:
 429 00cc 00000000 		.word	.LANCHOR1
 430 00d0 07000080 		.word	-2147483641
 431 00d4 04000000 		.word	.LANCHOR1+4
 432 00d8 00000000 		.word	.LANCHOR0
 433              		.cfi_endproc
 434              	.LFE68:
 435              		.size	elevation, .-elevation
 436              		.section	.text.MOTOR_STEP,"ax",%progbits
 437              		.align	2
 438              		.global	MOTOR_STEP
 439              		.thumb
 440              		.thumb_func
 441              		.type	MOTOR_STEP, %function
 442              	MOTOR_STEP:
 443              	.LFB70:
 130:StepperMotorDriver.c **** }
 131:StepperMotorDriver.c **** 
 132:StepperMotorDriver.c **** 
 133:StepperMotorDriver.c **** CY_ISR(MOTOR_STEP)
 134:StepperMotorDriver.c **** {   // interupt rutine activated by clock to take steps
 444              		.loc 1 134 0
 445              		.cfi_startproc
 446              		@ args = 0, pretend = 0, frame = 0
 447              		@ frame_needed = 0, uses_anonymous_args = 0
ARM GAS  C:\Users\degn\AppData\Local\Temp\cc5j1TH9.s 			page 12


 448 0000 08B5     		push	{r3, lr}
 449              		.cfi_def_cfa_offset 8
 450              		.cfi_offset 3, -8
 451              		.cfi_offset 14, -4
 135:StepperMotorDriver.c ****     if (aStep)
 452              		.loc 1 135 0
 453 0002 194B     		ldr	r3, .L45
 454 0004 1B68     		ldr	r3, [r3]
 455 0006 13B1     		cbz	r3, .L38
 136:StepperMotorDriver.c ****     {   // if aStep != 0 move
 137:StepperMotorDriver.c ****         azimuth();
 456              		.loc 1 137 0
 457 0008 FFF7FEFF 		bl	azimuth
 458              	.LVL32:
 459 000c 12E0     		b	.L39
 460              	.L38:
 138:StepperMotorDriver.c ****     }
 139:StepperMotorDriver.c ****     else if (Azimuth_Pin_1_Read() == 1 || Azimuth_Pin_2_Read() == 1 || Azimuth_Pin_3_Read() == 1 ||
 461              		.loc 1 139 0
 462 000e FFF7FEFF 		bl	Azimuth_Pin_1_Read
 463              	.LVL33:
 464 0012 0128     		cmp	r0, #1
 465 0014 0BD0     		beq	.L40
 466              		.loc 1 139 0 is_stmt 0 discriminator 1
 467 0016 FFF7FEFF 		bl	Azimuth_Pin_2_Read
 468              	.LVL34:
 469 001a 0128     		cmp	r0, #1
 470 001c 07D0     		beq	.L40
 471              		.loc 1 139 0 discriminator 2
 472 001e FFF7FEFF 		bl	Azimuth_Pin_3_Read
 473              	.LVL35:
 474 0022 0128     		cmp	r0, #1
 475 0024 03D0     		beq	.L40
 476              		.loc 1 139 0 discriminator 3
 477 0026 FFF7FEFF 		bl	Azimuth_Pin_4_Read
 478              	.LVL36:
 479 002a 0128     		cmp	r0, #1
 480 002c 02D1     		bne	.L39
 481              	.L40:
 140:StepperMotorDriver.c ****     {   // if we didn't move and motor is on, turn it off
 141:StepperMotorDriver.c ****         azimuthStep(off);
 482              		.loc 1 141 0 is_stmt 1
 483 002e 0F48     		ldr	r0, .L45+4
 484 0030 FFF7FEFF 		bl	azimuthStep
 485              	.LVL37:
 486              	.L39:
 142:StepperMotorDriver.c ****     }
 143:StepperMotorDriver.c ****     
 144:StepperMotorDriver.c ****     if (eStep)
 487              		.loc 1 144 0
 488 0034 0C4B     		ldr	r3, .L45
 489 0036 5B68     		ldr	r3, [r3, #4]
 490 0038 13B1     		cbz	r3, .L41
 145:StepperMotorDriver.c ****     {   // if eStep != 0 move
 146:StepperMotorDriver.c ****         elevation();
 491              		.loc 1 146 0
 492 003a FFF7FEFF 		bl	elevation
ARM GAS  C:\Users\degn\AppData\Local\Temp\cc5j1TH9.s 			page 13


 493              	.LVL38:
 494 003e 08BD     		pop	{r3, pc}
 495              	.L41:
 147:StepperMotorDriver.c ****     }
 148:StepperMotorDriver.c ****     else if (Elevation_Pin_1_Read() == 1 || Elevation_Pin_2_Read() == 1 || Elevation_Pin_3_Read() =
 496              		.loc 1 148 0
 497 0040 FFF7FEFF 		bl	Elevation_Pin_1_Read
 498              	.LVL39:
 499 0044 0128     		cmp	r0, #1
 500 0046 0BD0     		beq	.L43
 501              		.loc 1 148 0 is_stmt 0 discriminator 1
 502 0048 FFF7FEFF 		bl	Elevation_Pin_2_Read
 503              	.LVL40:
 504 004c 0128     		cmp	r0, #1
 505 004e 07D0     		beq	.L43
 506              		.loc 1 148 0 discriminator 2
 507 0050 FFF7FEFF 		bl	Elevation_Pin_3_Read
 508              	.LVL41:
 509 0054 0128     		cmp	r0, #1
 510 0056 03D0     		beq	.L43
 511              		.loc 1 148 0 discriminator 3
 512 0058 FFF7FEFF 		bl	Elevation_Pin_4_Read
 513              	.LVL42:
 514 005c 0128     		cmp	r0, #1
 515 005e 02D1     		bne	.L37
 516              	.L43:
 149:StepperMotorDriver.c ****     {   // if we didn't move and motor is on, turn it off
 150:StepperMotorDriver.c ****         elevationStep(off);
 517              		.loc 1 150 0 is_stmt 1
 518 0060 0248     		ldr	r0, .L45+4
 519 0062 FFF7FEFF 		bl	elevationStep
 520              	.LVL43:
 521              	.L37:
 522 0066 08BD     		pop	{r3, pc}
 523              	.L46:
 524              		.align	2
 525              	.L45:
 526 0068 00000000 		.word	.LANCHOR0
 527 006c 08000000 		.word	.LANCHOR0+8
 528              		.cfi_endproc
 529              	.LFE70:
 530              		.size	MOTOR_STEP, .-MOTOR_STEP
 531              		.section	.text.UART_HANDLER,"ax",%progbits
 532              		.align	2
 533              		.global	UART_HANDLER
 534              		.thumb
 535              		.thumb_func
 536              		.type	UART_HANDLER, %function
 537              	UART_HANDLER:
 538              	.LFB71:
 151:StepperMotorDriver.c ****     }
 152:StepperMotorDriver.c **** }
 153:StepperMotorDriver.c **** 
 154:StepperMotorDriver.c **** // to be deleted
 155:StepperMotorDriver.c **** CY_ISR(UART_HANDLER)
 156:StepperMotorDriver.c **** {
 539              		.loc 1 156 0
ARM GAS  C:\Users\degn\AppData\Local\Temp\cc5j1TH9.s 			page 14


 540              		.cfi_startproc
 541              		@ args = 0, pretend = 0, frame = 0
 542              		@ frame_needed = 0, uses_anonymous_args = 0
 543 0000 10B5     		push	{r4, lr}
 544              		.cfi_def_cfa_offset 8
 545              		.cfi_offset 4, -8
 546              		.cfi_offset 14, -4
 157:StepperMotorDriver.c ****     uint8_t c = UART_1_GetByte();
 547              		.loc 1 157 0
 548 0002 FFF7FEFF 		bl	UART_1_GetByte
 549              	.LVL44:
 550 0006 C4B2     		uxtb	r4, r0
 551              	.LVL45:
 158:StepperMotorDriver.c ****     UART_1_PutChar(c);
 552              		.loc 1 158 0
 553 0008 2046     		mov	r0, r4
 554 000a FFF7FEFF 		bl	UART_1_PutChar
 555              	.LVL46:
 159:StepperMotorDriver.c ****     if (c == 'f')
 556              		.loc 1 159 0
 557 000e 662C     		cmp	r4, #102
 558 0010 04D1     		bne	.L48
 160:StepperMotorDriver.c ****     {
 161:StepperMotorDriver.c ****         aStep = aStep - 1;
 559              		.loc 1 161 0
 560 0012 1B4A     		ldr	r2, .L57
 561 0014 1368     		ldr	r3, [r2]
 562 0016 013B     		subs	r3, r3, #1
 563 0018 1360     		str	r3, [r2]
 564 001a 10BD     		pop	{r4, pc}
 565              	.LVL47:
 566              	.L48:
 162:StepperMotorDriver.c ****     }
 163:StepperMotorDriver.c ****     else if (c == 'h')
 567              		.loc 1 163 0
 568 001c 682C     		cmp	r4, #104
 569 001e 04D1     		bne	.L50
 164:StepperMotorDriver.c ****     {
 165:StepperMotorDriver.c ****         aStep = aStep + 1;
 570              		.loc 1 165 0
 571 0020 174A     		ldr	r2, .L57
 572 0022 1368     		ldr	r3, [r2]
 573 0024 0133     		adds	r3, r3, #1
 574 0026 1360     		str	r3, [r2]
 575 0028 10BD     		pop	{r4, pc}
 576              	.LVL48:
 577              	.L50:
 166:StepperMotorDriver.c ****     }
 167:StepperMotorDriver.c ****     else if (c == 'd')
 578              		.loc 1 167 0
 579 002a 642C     		cmp	r4, #100
 580 002c 04D1     		bne	.L51
 168:StepperMotorDriver.c ****     {
 169:StepperMotorDriver.c ****         aStep = aStep - 80;
 581              		.loc 1 169 0
 582 002e 144A     		ldr	r2, .L57
 583 0030 1368     		ldr	r3, [r2]
ARM GAS  C:\Users\degn\AppData\Local\Temp\cc5j1TH9.s 			page 15


 584 0032 503B     		subs	r3, r3, #80
 585 0034 1360     		str	r3, [r2]
 586 0036 10BD     		pop	{r4, pc}
 587              	.LVL49:
 588              	.L51:
 170:StepperMotorDriver.c ****     }
 171:StepperMotorDriver.c ****     else if (c == 'j')
 589              		.loc 1 171 0
 590 0038 6A2C     		cmp	r4, #106
 591 003a 04D1     		bne	.L52
 172:StepperMotorDriver.c ****     {
 173:StepperMotorDriver.c ****         aStep = aStep + 80;
 592              		.loc 1 173 0
 593 003c 104A     		ldr	r2, .L57
 594 003e 1368     		ldr	r3, [r2]
 595 0040 5033     		adds	r3, r3, #80
 596 0042 1360     		str	r3, [r2]
 597 0044 10BD     		pop	{r4, pc}
 598              	.LVL50:
 599              	.L52:
 174:StepperMotorDriver.c ****     }
 175:StepperMotorDriver.c ****     else if (c == 'b')
 600              		.loc 1 175 0
 601 0046 622C     		cmp	r4, #98
 602 0048 04D1     		bne	.L53
 176:StepperMotorDriver.c ****     {
 177:StepperMotorDriver.c ****         eStep = eStep - 1;
 603              		.loc 1 177 0
 604 004a 0D4A     		ldr	r2, .L57
 605 004c 5368     		ldr	r3, [r2, #4]
 606 004e 013B     		subs	r3, r3, #1
 607 0050 5360     		str	r3, [r2, #4]
 608 0052 10BD     		pop	{r4, pc}
 609              	.LVL51:
 610              	.L53:
 178:StepperMotorDriver.c ****     }
 179:StepperMotorDriver.c ****     else if (c == 't')
 611              		.loc 1 179 0
 612 0054 742C     		cmp	r4, #116
 613 0056 04D1     		bne	.L54
 180:StepperMotorDriver.c ****     {
 181:StepperMotorDriver.c ****         eStep = eStep + 1;
 614              		.loc 1 181 0
 615 0058 094A     		ldr	r2, .L57
 616 005a 5368     		ldr	r3, [r2, #4]
 617 005c 0133     		adds	r3, r3, #1
 618 005e 5360     		str	r3, [r2, #4]
 619 0060 10BD     		pop	{r4, pc}
 620              	.LVL52:
 621              	.L54:
 182:StepperMotorDriver.c ****     }
 183:StepperMotorDriver.c ****     else if (c == 'n')
 622              		.loc 1 183 0
 623 0062 6E2C     		cmp	r4, #110
 624 0064 04D1     		bne	.L55
 184:StepperMotorDriver.c ****     {
 185:StepperMotorDriver.c ****         eStep = eStep - 80;
ARM GAS  C:\Users\degn\AppData\Local\Temp\cc5j1TH9.s 			page 16


 625              		.loc 1 185 0
 626 0066 064A     		ldr	r2, .L57
 627 0068 5368     		ldr	r3, [r2, #4]
 628 006a 503B     		subs	r3, r3, #80
 629 006c 5360     		str	r3, [r2, #4]
 630 006e 10BD     		pop	{r4, pc}
 631              	.LVL53:
 632              	.L55:
 186:StepperMotorDriver.c ****     }
 187:StepperMotorDriver.c ****     else if (c == 'y')
 633              		.loc 1 187 0
 634 0070 792C     		cmp	r4, #121
 635 0072 03D1     		bne	.L47
 188:StepperMotorDriver.c ****     {
 189:StepperMotorDriver.c ****         eStep = eStep + 80;
 636              		.loc 1 189 0
 637 0074 024A     		ldr	r2, .L57
 638 0076 5368     		ldr	r3, [r2, #4]
 639 0078 5033     		adds	r3, r3, #80
 640 007a 5360     		str	r3, [r2, #4]
 641              	.L47:
 642 007c 10BD     		pop	{r4, pc}
 643              	.LVL54:
 644              	.L58:
 645 007e 00BF     		.align	2
 646              	.L57:
 647 0080 00000000 		.word	.LANCHOR0
 648              		.cfi_endproc
 649              	.LFE71:
 650              		.size	UART_HANDLER, .-UART_HANDLER
 651              		.data
 652              		.align	2
 653              		.set	.LANCHOR1,. + 0
 654              		.type	azimuthSteps, %object
 655              		.size	azimuthSteps, 4
 656              	azimuthSteps:
 657 0000 00127A00 		.word	8000000
 658              		.type	stepSequence, %object
 659              		.size	stepSequence, 128
 660              	stepSequence:
 661 0004 01000000 		.word	1
 662 0008 00000000 		.word	0
 663 000c 00000000 		.word	0
 664 0010 00000000 		.word	0
 665 0014 01000000 		.word	1
 666 0018 01000000 		.word	1
 667 001c 00000000 		.word	0
 668 0020 00000000 		.word	0
 669 0024 00000000 		.word	0
 670 0028 01000000 		.word	1
 671 002c 00000000 		.word	0
 672 0030 00000000 		.word	0
 673 0034 00000000 		.word	0
 674 0038 01000000 		.word	1
 675 003c 01000000 		.word	1
 676 0040 00000000 		.word	0
 677 0044 00000000 		.word	0
ARM GAS  C:\Users\degn\AppData\Local\Temp\cc5j1TH9.s 			page 17


 678 0048 00000000 		.word	0
 679 004c 01000000 		.word	1
 680 0050 00000000 		.word	0
 681 0054 00000000 		.word	0
 682 0058 00000000 		.word	0
 683 005c 01000000 		.word	1
 684 0060 01000000 		.word	1
 685 0064 00000000 		.word	0
 686 0068 00000000 		.word	0
 687 006c 00000000 		.word	0
 688 0070 01000000 		.word	1
 689 0074 01000000 		.word	1
 690 0078 00000000 		.word	0
 691 007c 00000000 		.word	0
 692 0080 01000000 		.word	1
 693              		.type	elevationSteps, %object
 694              		.size	elevationSteps, 4
 695              	elevationSteps:
 696 0084 00127A00 		.word	8000000
 697              		.bss
 698              		.align	2
 699              		.set	.LANCHOR0,. + 0
 700              		.type	aStep, %object
 701              		.size	aStep, 4
 702              	aStep:
 703 0000 00000000 		.space	4
 704              		.type	eStep, %object
 705              		.size	eStep, 4
 706              	eStep:
 707 0004 00000000 		.space	4
 708              		.type	off, %object
 709              		.size	off, 16
 710              	off:
 711 0008 00000000 		.space	16
 711      00000000 
 711      00000000 
 711      00000000 
 712              		.text
 713              	.Letext0:
 714              		.file 2 "c:\\program files (x86)\\cypress\\psoc creator\\4.4\\psoc creator\\import\\gnu\\arm\\5.4.
 715              		.file 3 "c:\\program files (x86)\\cypress\\psoc creator\\4.4\\psoc creator\\import\\gnu\\arm\\5.4.
 716              		.file 4 "Generated_Source\\PSoC5/Azimuth_Pin_1.h"
 717              		.file 5 "Generated_Source\\PSoC5/Azimuth_Pin_2.h"
 718              		.file 6 "Generated_Source\\PSoC5/Azimuth_Pin_3.h"
 719              		.file 7 "Generated_Source\\PSoC5/Azimuth_Pin_4.h"
 720              		.file 8 "Generated_Source\\PSoC5/Limit_Right.h"
 721              		.file 9 "Generated_Source\\PSoC5/Limit_Left.h"
 722              		.file 10 "Generated_Source\\PSoC5/Elevation_Pin_1.h"
 723              		.file 11 "Generated_Source\\PSoC5/Elevation_Pin_2.h"
 724              		.file 12 "Generated_Source\\PSoC5/Elevation_Pin_3.h"
 725              		.file 13 "Generated_Source\\PSoC5/Elevation_Pin_4.h"
 726              		.file 14 "Generated_Source\\PSoC5/Limit_Up.h"
 727              		.file 15 "Generated_Source\\PSoC5/Limit_Down.h"
 728              		.file 16 "Generated_Source\\PSoC5/UART_1.h"
 729              		.file 17 "Generated_Source\\PSoC5/core_cm3.h"