ARM GAS  C:\Users\perhi\AppData\Local\Temp\ccn8DKw6.s 			page 1


   1              		.syntax unified
   2              		.cpu cortex-m3
   3              		.fpu softvfp
   4              		.eabi_attribute 20, 1
   5              		.eabi_attribute 21, 1
   6              		.eabi_attribute 23, 3
   7              		.eabi_attribute 24, 1
   8              		.eabi_attribute 25, 1
   9              		.eabi_attribute 26, 1
  10              		.eabi_attribute 30, 1
  11              		.eabi_attribute 34, 1
  12              		.eabi_attribute 18, 4
  13              		.thumb
  14              		.syntax unified
  15              		.file	"main.c"
  16              		.text
  17              	.Ltext0:
  18              		.cfi_sections	.debug_frame
  19              		.section	.text.main,"ax",%progbits
  20              		.align	2
  21              		.global	main
  22              		.thumb
  23              		.thumb_func
  24              		.type	main, %function
  25              	main:
  26              	.LFB64:
  27              		.file 1 "main.c"
   1:main.c        **** /* ========================================
   2:main.c        ****  *
   3:main.c        ****  *          Thomas Degn Larsen
   4:main.c        ****  *
   5:main.c        ****  * ========================================
   6:main.c        **** */
   7:main.c        **** 
   8:main.c        **** #include "project.h"
   9:main.c        **** #include "StepperMotorDriver.h"
  10:main.c        **** #include <stdio.h>
  11:main.c        **** 
  12:main.c        **** int main(void)
  13:main.c        **** {
  28              		.loc 1 13 0
  29              		.cfi_startproc
  30              		@ args = 0, pretend = 0, frame = 64
  31              		@ frame_needed = 0, uses_anonymous_args = 0
  32 0000 70B5     		push	{r4, r5, r6, lr}
  33              		.cfi_def_cfa_offset 16
  34              		.cfi_offset 4, -16
  35              		.cfi_offset 5, -12
  36              		.cfi_offset 6, -8
  37              		.cfi_offset 14, -4
  38 0002 94B0     		sub	sp, sp, #80
  39              		.cfi_def_cfa_offset 96
  14:main.c        ****     CyGlobalIntEnable;                                                      // Enable global interr
  40              		.loc 1 14 0
  41              		.syntax unified
  42              	@ 14 "main.c" 1
  43 0004 62B6     		CPSIE   i
ARM GAS  C:\Users\perhi\AppData\Local\Temp\ccn8DKw6.s 			page 2


  44              	@ 0 "" 2
  15:main.c        ****     UART_1_Start();                                                         // Enable UART
  45              		.loc 1 15 0
  46              		.thumb
  47              		.syntax unified
  48 0006 FFF7FEFF 		bl	UART_1_Start
  49              	.LVL0:
  16:main.c        ****     isr_uart_rx_StartEx(UART_HANDLER);                                      // Enable UART ISR
  50              		.loc 1 16 0
  51 000a 2148     		ldr	r0, .L10
  52 000c FFF7FEFF 		bl	isr_uart_rx_StartEx
  53              	.LVL1:
  17:main.c        ****     isr_motor_StartEx(MOTOR_STEP);                                          // Enable ISR for motor
  54              		.loc 1 17 0
  55 0010 2048     		ldr	r0, .L10+4
  56 0012 FFF7FEFF 		bl	isr_motor_StartEx
  57              	.LVL2:
  18:main.c        ****     UART_1_PutString("Ready to test new ideas that don't work!\r\n");       // Show message on UART
  58              		.loc 1 18 0
  59 0016 2048     		ldr	r0, .L10+8
  60 0018 FFF7FEFF 		bl	UART_1_PutString
  61              	.LVL3:
  19:main.c        ****     
  20:main.c        ****     // Start SPI Slave component.
  21:main.c        ****     SPIS_1_Start();
  62              		.loc 1 21 0
  63 001c FFF7FEFF 		bl	SPIS_1_Start
  64              	.LVL4:
  65              	.L8:
  66              	.LBB2:
  22:main.c        ****     
  23:main.c        ****     uint8_t receivedData = 0;
  24:main.c        **** 
  25:main.c        ****     for(;;) 
  26:main.c        ****     {
  27:main.c        ****         // SPI Communication Handling
  28:main.c        ****         if (SPIS_1_GetRxBufferSize() != 0)
  67              		.loc 1 28 0
  68 0020 FFF7FEFF 		bl	SPIS_1_GetRxBufferSize
  69              	.LVL5:
  70 0024 C8B1     		cbz	r0, .L2
  29:main.c        ****         {
  30:main.c        ****             // Read the received data.
  31:main.c        ****             receivedData = SPIS_1_ReadRxData();
  71              		.loc 1 31 0
  72 0026 FFF7FEFF 		bl	SPIS_1_ReadRxData
  73              	.LVL6:
  32:main.c        **** 
  33:main.c        ****             switch (receivedData)
  74              		.loc 1 33 0
  75 002a 0138     		subs	r0, r0, #1
  76              	.LVL7:
  77 002c 0328     		cmp	r0, #3
  78 002e 14D8     		bhi	.L2
  79 0030 DFE800F0 		tbb	[pc, r0]
  80              	.L4:
  81 0034 02       		.byte	(.L3-.L4)/2
ARM GAS  C:\Users\perhi\AppData\Local\Temp\ccn8DKw6.s 			page 3


  82 0035 06       		.byte	(.L5-.L4)/2
  83 0036 0B       		.byte	(.L6-.L4)/2
  84 0037 0F       		.byte	(.L7-.L4)/2
  85              		.p2align 1
  86              	.L3:
  34:main.c        ****             {
  35:main.c        ****                 case 1:
  36:main.c        ****                     // Move 100 steps left.
  37:main.c        ****                     moveAzimuth(100);
  87              		.loc 1 37 0
  88 0038 6420     		movs	r0, #100
  89 003a FFF7FEFF 		bl	moveAzimuth
  90              	.LVL8:
  38:main.c        ****                     break;
  91              		.loc 1 38 0
  92 003e 0CE0     		b	.L2
  93              	.L5:
  39:main.c        ****                 case 2:
  40:main.c        ****                     // Move 100 steps right.
  41:main.c        ****                     moveAzimuth(-100);
  94              		.loc 1 41 0
  95 0040 6FF06300 		mvn	r0, #99
  96 0044 FFF7FEFF 		bl	moveAzimuth
  97              	.LVL9:
  42:main.c        ****                     break;
  98              		.loc 1 42 0
  99 0048 07E0     		b	.L2
 100              	.L6:
  43:main.c        ****                 case 3:
  44:main.c        ****                     // Move 100 steps up.
  45:main.c        ****                     moveElevation(100);
 101              		.loc 1 45 0
 102 004a 6420     		movs	r0, #100
 103 004c FFF7FEFF 		bl	moveElevation
 104              	.LVL10:
  46:main.c        ****                     break;
 105              		.loc 1 46 0
 106 0050 03E0     		b	.L2
 107              	.L7:
  47:main.c        ****                 case 4:
  48:main.c        ****                     // Move 10 steps down.
  49:main.c        ****                     moveElevation(-100);
 108              		.loc 1 49 0
 109 0052 6FF06300 		mvn	r0, #99
 110 0056 FFF7FEFF 		bl	moveElevation
 111              	.LVL11:
 112              	.L2:
  50:main.c        ****                     break;
  51:main.c        ****                 default:
  52:main.c        ****                     // Ignore other commands.
  53:main.c        ****                     break;
  54:main.c        ****             }
  55:main.c        ****         }
  56:main.c        **** 
  57:main.c        ****         MOTOR_STEP();
 113              		.loc 1 57 0 discriminator 1
 114 005a FFF7FEFF 		bl	MOTOR_STEP
ARM GAS  C:\Users\perhi\AppData\Local\Temp\ccn8DKw6.s 			page 4


 115              	.LVL12:
  58:main.c        ****         
  59:main.c        ****         // UART Communication Handling
  60:main.c        ****         char buff[64];
  61:main.c        ****         snprintf(buff, sizeof(buff), "Up: %i, Down: %i, Right: %i, Left: %i  \r\n", limitUp(), limi
 116              		.loc 1 61 0 discriminator 1
 117 005e FFF7FEFF 		bl	limitUp
 118              	.LVL13:
 119 0062 0446     		mov	r4, r0
 120 0064 FFF7FEFF 		bl	limitDown
 121              	.LVL14:
 122 0068 0546     		mov	r5, r0
 123 006a FFF7FEFF 		bl	limitRight
 124              	.LVL15:
 125 006e 0646     		mov	r6, r0
 126 0070 FFF7FEFF 		bl	limitLeft
 127              	.LVL16:
 128 0074 0290     		str	r0, [sp, #8]
 129 0076 0196     		str	r6, [sp, #4]
 130 0078 0095     		str	r5, [sp]
 131 007a 2346     		mov	r3, r4
 132 007c 074A     		ldr	r2, .L10+12
 133 007e 4021     		movs	r1, #64
 134 0080 04A8     		add	r0, sp, #16
 135 0082 FFF7FEFF 		bl	snprintf
 136              	.LVL17:
  62:main.c        ****         UART_1_PutString(buff);
 137              		.loc 1 62 0 discriminator 1
 138 0086 04A8     		add	r0, sp, #16
 139 0088 FFF7FEFF 		bl	UART_1_PutString
 140              	.LVL18:
 141              	.LBE2:
  63:main.c        ****     }
 142              		.loc 1 63 0 discriminator 1
 143 008c C8E7     		b	.L8
 144              	.L11:
 145 008e 00BF     		.align	2
 146              	.L10:
 147 0090 00000000 		.word	UART_HANDLER
 148 0094 00000000 		.word	MOTOR_STEP
 149 0098 00000000 		.word	.LC0
 150 009c 2C000000 		.word	.LC1
 151              		.cfi_endproc
 152              	.LFE64:
 153              		.size	main, .-main
 154              		.section	.rodata.str1.4,"aMS",%progbits,1
 155              		.align	2
 156              	.LC0:
 157 0000 52656164 		.ascii	"Ready to test new ideas that don't work!\015\012\000"
 157      7920746F 
 157      20746573 
 157      74206E65 
 157      77206964 
 158 002b 00       		.space	1
 159              	.LC1:
 160 002c 55703A20 		.ascii	"Up: %i, Down: %i, Right: %i, Left: %i  \015\012\000"
 160      25692C20 
ARM GAS  C:\Users\perhi\AppData\Local\Temp\ccn8DKw6.s 			page 5


 160      446F776E 
 160      3A202569 
 160      2C205269 
 161              		.text
 162              	.Letext0:
 163              		.file 2 "c:\\program files (x86)\\cypress\\psoc creator\\4.4\\psoc creator\\import\\gnu\\arm\\5.4.
 164              		.file 3 "c:\\program files (x86)\\cypress\\psoc creator\\4.4\\psoc creator\\import\\gnu\\arm\\5.4.
 165              		.file 4 "Generated_Source\\PSoC5/SPIS_1.h"
 166              		.file 5 "StepperMotorDriver.h"
 167              		.file 6 "c:\\program files (x86)\\cypress\\psoc creator\\4.4\\psoc creator\\import\\gnu\\arm\\5.4.
 168              		.file 7 "Generated_Source\\PSoC5/UART_1.h"
 169              		.file 8 "Generated_Source\\PSoC5/isr_uart_rx.h"
 170              		.file 9 "Generated_Source\\PSoC5/isr_motor.h"
 171              		.file 10 "Generated_Source\\PSoC5/core_cm3.h"